
interface.elf:     file format elf32-littlearm


Disassembly of section .text:

40008000 <_start>:
40008000:	ea00000d 	b	4000803c <reset>
40008004:	e59ff014 	ldr	pc, [pc, #20]	; 40008020 <_undefined_instruction>
40008008:	e59ff014 	ldr	pc, [pc, #20]	; 40008024 <_software_interrupt>
4000800c:	e59ff014 	ldr	pc, [pc, #20]	; 40008028 <_prefetch_abort>
40008010:	e59ff014 	ldr	pc, [pc, #20]	; 4000802c <_data_abort>
40008014:	e59ff014 	ldr	pc, [pc, #20]	; 40008030 <_not_used>
40008018:	e59ff014 	ldr	pc, [pc, #20]	; 40008034 <_irq>
4000801c:	e59ff014 	ldr	pc, [pc, #20]	; 40008038 <_fiq>

40008020 <_undefined_instruction>:
40008020:	40008020 	andmi	r8, r0, r0, lsr #32

40008024 <_software_interrupt>:
40008024:	40008024 	andmi	r8, r0, r4, lsr #32

40008028 <_prefetch_abort>:
40008028:	40008028 	andmi	r8, r0, r8, lsr #32

4000802c <_data_abort>:
4000802c:	4000802c 	andmi	r8, r0, ip, lsr #32

40008030 <_not_used>:
40008030:	40008030 	andmi	r8, r0, r0, lsr r0

40008034 <_irq>:
40008034:	400080e0 	andmi	r8, r0, r0, ror #1

40008038 <_fiq>:
40008038:	40008038 	andmi	r8, r0, r8, lsr r0

4000803c <reset>:
4000803c:	e59f00b0 	ldr	r0, [pc, #176]	; 400080f4 <stacktop+0x4>
40008040:	ee0c0f10 	mcr	15, 0, r0, cr12, cr0, {0}
40008044:	e10f0000 	mrs	r0, CPSR
40008048:	e3c0001f 	bic	r0, r0, #31
4000804c:	e38000d3 	orr	r0, r0, #211	; 0xd3
40008050:	e129f000 	msr	CPSR_fc, r0
40008054:	e3e0020f 	mvn	r0, #-268435456	; 0xf0000000
40008058:	ee010f50 	mcr	15, 0, r0, cr1, cr0, {2}
4000805c:	e3a00000 	mov	r0, #0
40008060:	ee080f17 	mcr	15, 0, r0, cr8, cr7, {0}
40008064:	ee070f15 	mcr	15, 0, r0, cr7, cr5, {0}
40008068:	e3a03101 	mov	r3, #1073741824	; 0x40000000
4000806c:	eee83a10 	vmsr	fpexc, r3
40008070:	ee110f10 	mrc	15, 0, r0, cr1, cr0, {0}
40008074:	e3c00a02 	bic	r0, r0, #8192	; 0x2000
40008078:	e3c00007 	bic	r0, r0, #7
4000807c:	e3800a01 	orr	r0, r0, #4096	; 0x1000
40008080:	e3800002 	orr	r0, r0, #2
40008084:	e3800b02 	orr	r0, r0, #2048	; 0x800
40008088:	ee010f10 	mcr	15, 0, r0, cr1, cr0, {0}

4000808c <init_stack>:
4000808c:	e59f005c 	ldr	r0, [pc, #92]	; 400080f0 <stacktop>
40008090:	e1a0d000 	mov	sp, r0
40008094:	e2400c02 	sub	r0, r0, #512	; 0x200
40008098:	e329f0d2 	msr	CPSR_fc, #210	; 0xd2
4000809c:	e1a0d000 	mov	sp, r0
400080a0:	e2400c02 	sub	r0, r0, #512	; 0x200
400080a4:	e329f0d1 	msr	CPSR_fc, #209	; 0xd1
400080a8:	e1a0d000 	mov	sp, r0
400080ac:	e2400000 	sub	r0, r0, #0
400080b0:	e329f0d7 	msr	CPSR_fc, #215	; 0xd7
400080b4:	e1a0d000 	mov	sp, r0
400080b8:	e2400000 	sub	r0, r0, #0
400080bc:	e329f0db 	msr	CPSR_fc, #219	; 0xdb
400080c0:	e1a0d000 	mov	sp, r0
400080c4:	e2400000 	sub	r0, r0, #0
400080c8:	e329f010 	msr	CPSR_fc, #16
400080cc:	e1a0d000 	mov	sp, r0
400080d0:	ea0005b3 	b	400097a4 <main>
400080d4:	e320f000 	nop	{0}
400080d8:	e320f000 	nop	{0}
400080dc:	e320f000 	nop	{0}

400080e0 <irq_handler>:
400080e0:	e24ee004 	sub	lr, lr, #4
400080e4:	e92d5fff 	push	{r0, r1, r2, r3, r4, r5, r6, r7, r8, r9, sl, fp, ip, lr}
400080e8:	eb00050c 	bl	40009520 <do_irq>
400080ec:	e8fd9fff 	ldm	sp!, {r0, r1, r2, r3, r4, r5, r6, r7, r8, r9, sl, fp, ip, pc}^

400080f0 <stacktop>:
400080f0:	4000a1ac 	andmi	sl, r0, ip, lsr #3
400080f4:	40008000 	andmi	r8, r0, r0
400080f8:	e320f000 	nop	{0}
400080fc:	e320f000 	nop	{0}

40008100 <__udivsi3>:
40008100:	e3510000 	cmp	r1, #0
40008104:	0a00001f 	beq	40008188 <Ldiv0>
40008108:	e3a03001 	mov	r3, #1
4000810c:	e3a02000 	mov	r2, #0
40008110:	e1500001 	cmp	r0, r1
40008114:	3a000019 	bcc	40008180 <Lgot_result>

40008118 <Loop1>:
40008118:	e3510201 	cmp	r1, #268435456	; 0x10000000
4000811c:	31510000 	cmpcc	r1, r0
40008120:	31a01201 	lslcc	r1, r1, #4
40008124:	31a03203 	lslcc	r3, r3, #4
40008128:	3afffffa 	bcc	40008118 <Loop1>

4000812c <Lbignum>:
4000812c:	e3510102 	cmp	r1, #-2147483648	; 0x80000000
40008130:	31510000 	cmpcc	r1, r0
40008134:	31a01081 	lslcc	r1, r1, #1
40008138:	31a03083 	lslcc	r3, r3, #1
4000813c:	3afffffa 	bcc	4000812c <Lbignum>

40008140 <Loop3>:
40008140:	e1500001 	cmp	r0, r1
40008144:	20400001 	subcs	r0, r0, r1
40008148:	21822003 	orrcs	r2, r2, r3
4000814c:	e15000a1 	cmp	r0, r1, lsr #1
40008150:	204000a1 	subcs	r0, r0, r1, lsr #1
40008154:	218220a3 	orrcs	r2, r2, r3, lsr #1
40008158:	e1500121 	cmp	r0, r1, lsr #2
4000815c:	20400121 	subcs	r0, r0, r1, lsr #2
40008160:	21822123 	orrcs	r2, r2, r3, lsr #2
40008164:	e15001a1 	cmp	r0, r1, lsr #3
40008168:	204001a1 	subcs	r0, r0, r1, lsr #3
4000816c:	218221a3 	orrcs	r2, r2, r3, lsr #3
40008170:	e3500000 	cmp	r0, #0
40008174:	11b03223 	lsrsne	r3, r3, #4
40008178:	11a01221 	lsrne	r1, r1, #4
4000817c:	1affffef 	bne	40008140 <Loop3>

40008180 <Lgot_result>:
40008180:	e1a00002 	mov	r0, r2
40008184:	e1a0f00e 	mov	pc, lr

40008188 <Ldiv0>:
40008188:	e52de004 	push	{lr}		; (str lr, [sp, #-4]!)
4000818c:	e3a00000 	mov	r0, #0
40008190:	e8bd8000 	ldmfd	sp!, {pc}

40008194 <__umodsi3>:
40008194:	e3510000 	cmp	r1, #0
40008198:	0a000026 	beq	40008238 <Ldiv0>
4000819c:	e3a03001 	mov	r3, #1
400081a0:	e1500001 	cmp	r0, r1
400081a4:	31a0f00e 	movcc	pc, lr

400081a8 <Loop1>:
400081a8:	e3510201 	cmp	r1, #268435456	; 0x10000000
400081ac:	31510000 	cmpcc	r1, r0
400081b0:	31a01201 	lslcc	r1, r1, #4
400081b4:	31a03203 	lslcc	r3, r3, #4
400081b8:	3afffffa 	bcc	400081a8 <Loop1>

400081bc <Lbignum>:
400081bc:	e3510102 	cmp	r1, #-2147483648	; 0x80000000
400081c0:	31510000 	cmpcc	r1, r0
400081c4:	31a01081 	lslcc	r1, r1, #1
400081c8:	31a03083 	lslcc	r3, r3, #1
400081cc:	3afffffa 	bcc	400081bc <Lbignum>

400081d0 <Loop3>:
400081d0:	e3a02000 	mov	r2, #0
400081d4:	e1500001 	cmp	r0, r1
400081d8:	20400001 	subcs	r0, r0, r1
400081dc:	e15000a1 	cmp	r0, r1, lsr #1
400081e0:	204000a1 	subcs	r0, r0, r1, lsr #1
400081e4:	218220e3 	orrcs	r2, r2, r3, ror #1
400081e8:	e1500121 	cmp	r0, r1, lsr #2
400081ec:	20400121 	subcs	r0, r0, r1, lsr #2
400081f0:	21822163 	orrcs	r2, r2, r3, ror #2
400081f4:	e15001a1 	cmp	r0, r1, lsr #3
400081f8:	204001a1 	subcs	r0, r0, r1, lsr #3
400081fc:	218221e3 	orrcs	r2, r2, r3, ror #3
40008200:	e1a0c003 	mov	ip, r3
40008204:	e3500000 	cmp	r0, #0
40008208:	11b03223 	lsrsne	r3, r3, #4
4000820c:	11a01221 	lsrne	r1, r1, #4
40008210:	1affffee 	bne	400081d0 <Loop3>
40008214:	e212220e 	ands	r2, r2, #-536870912	; 0xe0000000
40008218:	01a0f00e 	moveq	pc, lr
4000821c:	e11201ec 	tst	r2, ip, ror #3
40008220:	108001a1 	addne	r0, r0, r1, lsr #3
40008224:	e112016c 	tst	r2, ip, ror #2
40008228:	10800121 	addne	r0, r0, r1, lsr #2
4000822c:	e11200ec 	tst	r2, ip, ror #1
40008230:	108000a1 	addne	r0, r0, r1, lsr #1
40008234:	e1a0f00e 	mov	pc, lr

40008238 <Ldiv0>:
40008238:	e52de004 	push	{lr}		; (str lr, [sp, #-4]!)
4000823c:	e3a00000 	mov	r0, #0
40008240:	e8bd8000 	ldmfd	sp!, {pc}

40008244 <__toupper>:
40008244:	e52db004 	push	{fp}		; (str fp, [sp, #-4]!)
40008248:	e28db000 	add	fp, sp, #0
4000824c:	e24dd004 	sub	sp, sp, #4
40008250:	e1a03000 	mov	r3, r0
40008254:	e54b3004 	strb	r3, [fp, #-4]
40008258:	e55b3004 	ldrb	r3, [fp, #-4]
4000825c:	e59f202c 	ldr	r2, [pc, #44]	; 40008290 <__toupper+0x4c>
40008260:	e7d23003 	ldrb	r3, [r2, r3]
40008264:	e2033002 	and	r3, r3, #2
40008268:	e3530000 	cmp	r3, #0
4000826c:	0a000002 	beq	4000827c <__toupper+0x38>
40008270:	e55b3004 	ldrb	r3, [fp, #-4]
40008274:	e2433020 	sub	r3, r3, #32
40008278:	e54b3004 	strb	r3, [fp, #-4]
4000827c:	e55b3004 	ldrb	r3, [fp, #-4]
40008280:	e1a00003 	mov	r0, r3
40008284:	e28bd000 	add	sp, fp, #0
40008288:	e8bd0800 	ldmfd	sp!, {fp}
4000828c:	e12fff1e 	bx	lr
40008290:	4000a3ac 	andmi	sl, r0, ip, lsr #7

40008294 <simple_strtoul>:
40008294:	e92d4800 	push	{fp, lr}
40008298:	e28db004 	add	fp, sp, #4
4000829c:	e24dd014 	sub	sp, sp, #20
400082a0:	e50b0010 	str	r0, [fp, #-16]
400082a4:	e50b1014 	str	r1, [fp, #-20]
400082a8:	e50b2018 	str	r2, [fp, #-24]
400082ac:	e3a03000 	mov	r3, #0
400082b0:	e50b3008 	str	r3, [fp, #-8]
400082b4:	e51b3010 	ldr	r3, [fp, #-16]
400082b8:	e5d33000 	ldrb	r3, [r3]
400082bc:	e3530030 	cmp	r3, #48	; 0x30
400082c0:	1a000018 	bne	40008328 <simple_strtoul+0x94>
400082c4:	e51b3010 	ldr	r3, [fp, #-16]
400082c8:	e2833001 	add	r3, r3, #1
400082cc:	e50b3010 	str	r3, [fp, #-16]
400082d0:	e51b3010 	ldr	r3, [fp, #-16]
400082d4:	e5d33000 	ldrb	r3, [r3]
400082d8:	e3530078 	cmp	r3, #120	; 0x78
400082dc:	1a00000c 	bne	40008314 <simple_strtoul+0x80>
400082e0:	e51b3010 	ldr	r3, [fp, #-16]
400082e4:	e2833001 	add	r3, r3, #1
400082e8:	e5d33000 	ldrb	r3, [r3]
400082ec:	e59f2140 	ldr	r2, [pc, #320]	; 40008434 <simple_strtoul+0x1a0>
400082f0:	e7d23003 	ldrb	r3, [r2, r3]
400082f4:	e2033044 	and	r3, r3, #68	; 0x44
400082f8:	e3530000 	cmp	r3, #0
400082fc:	0a000004 	beq	40008314 <simple_strtoul+0x80>
40008300:	e3a03010 	mov	r3, #16
40008304:	e50b3018 	str	r3, [fp, #-24]
40008308:	e51b3010 	ldr	r3, [fp, #-16]
4000830c:	e2833001 	add	r3, r3, #1
40008310:	e50b3010 	str	r3, [fp, #-16]
40008314:	e51b3018 	ldr	r3, [fp, #-24]
40008318:	e3530000 	cmp	r3, #0
4000831c:	1a000001 	bne	40008328 <simple_strtoul+0x94>
40008320:	e3a03008 	mov	r3, #8
40008324:	e50b3018 	str	r3, [fp, #-24]
40008328:	e51b3018 	ldr	r3, [fp, #-24]
4000832c:	e3530000 	cmp	r3, #0
40008330:	1a00000c 	bne	40008368 <simple_strtoul+0xd4>
40008334:	e3a0300a 	mov	r3, #10
40008338:	e50b3018 	str	r3, [fp, #-24]
4000833c:	ea000009 	b	40008368 <simple_strtoul+0xd4>
40008340:	e51b3008 	ldr	r3, [fp, #-8]
40008344:	e51b2018 	ldr	r2, [fp, #-24]
40008348:	e0020392 	mul	r2, r2, r3
4000834c:	e51b300c 	ldr	r3, [fp, #-12]
40008350:	e0823003 	add	r3, r2, r3
40008354:	e50b3008 	str	r3, [fp, #-8]
40008358:	e51b3010 	ldr	r3, [fp, #-16]
4000835c:	e2833001 	add	r3, r3, #1
40008360:	e50b3010 	str	r3, [fp, #-16]
40008364:	ea000000 	b	4000836c <simple_strtoul+0xd8>
40008368:	e1a00000 	nop			; (mov r0, r0)
4000836c:	e51b3010 	ldr	r3, [fp, #-16]
40008370:	e5d33000 	ldrb	r3, [r3]
40008374:	e59f20b8 	ldr	r2, [pc, #184]	; 40008434 <simple_strtoul+0x1a0>
40008378:	e7d23003 	ldrb	r3, [r2, r3]
4000837c:	e2033044 	and	r3, r3, #68	; 0x44
40008380:	e3530000 	cmp	r3, #0
40008384:	0a000020 	beq	4000840c <simple_strtoul+0x178>
40008388:	e51b3010 	ldr	r3, [fp, #-16]
4000838c:	e5d33000 	ldrb	r3, [r3]
40008390:	e59f209c 	ldr	r2, [pc, #156]	; 40008434 <simple_strtoul+0x1a0>
40008394:	e7d23003 	ldrb	r3, [r2, r3]
40008398:	e2033004 	and	r3, r3, #4
4000839c:	e3530000 	cmp	r3, #0
400083a0:	0a000003 	beq	400083b4 <simple_strtoul+0x120>
400083a4:	e51b3010 	ldr	r3, [fp, #-16]
400083a8:	e5d33000 	ldrb	r3, [r3]
400083ac:	e2433030 	sub	r3, r3, #48	; 0x30
400083b0:	ea000010 	b	400083f8 <simple_strtoul+0x164>
400083b4:	e51b3010 	ldr	r3, [fp, #-16]
400083b8:	e5d33000 	ldrb	r3, [r3]
400083bc:	e59f2070 	ldr	r2, [pc, #112]	; 40008434 <simple_strtoul+0x1a0>
400083c0:	e7d23003 	ldrb	r3, [r2, r3]
400083c4:	e2033002 	and	r3, r3, #2
400083c8:	e3530000 	cmp	r3, #0
400083cc:	0a000006 	beq	400083ec <simple_strtoul+0x158>
400083d0:	e51b3010 	ldr	r3, [fp, #-16]
400083d4:	e5d33000 	ldrb	r3, [r3]
400083d8:	e1a00003 	mov	r0, r3
400083dc:	ebffff98 	bl	40008244 <__toupper>
400083e0:	e1a03000 	mov	r3, r0
400083e4:	e2433037 	sub	r3, r3, #55	; 0x37
400083e8:	ea000002 	b	400083f8 <simple_strtoul+0x164>
400083ec:	e51b3010 	ldr	r3, [fp, #-16]
400083f0:	e5d33000 	ldrb	r3, [r3]
400083f4:	e2433037 	sub	r3, r3, #55	; 0x37
400083f8:	e50b300c 	str	r3, [fp, #-12]
400083fc:	e51b200c 	ldr	r2, [fp, #-12]
40008400:	e51b3018 	ldr	r3, [fp, #-24]
40008404:	e1520003 	cmp	r2, r3
40008408:	3affffcc 	bcc	40008340 <simple_strtoul+0xac>
4000840c:	e51b3014 	ldr	r3, [fp, #-20]
40008410:	e3530000 	cmp	r3, #0
40008414:	0a000002 	beq	40008424 <simple_strtoul+0x190>
40008418:	e51b3014 	ldr	r3, [fp, #-20]
4000841c:	e51b2010 	ldr	r2, [fp, #-16]
40008420:	e5832000 	str	r2, [r3]
40008424:	e51b3008 	ldr	r3, [fp, #-8]
40008428:	e1a00003 	mov	r0, r3
4000842c:	e24bd004 	sub	sp, fp, #4
40008430:	e8bd8800 	pop	{fp, pc}
40008434:	4000a3ac 	andmi	sl, r0, ip, lsr #7

40008438 <simple_strtol>:
40008438:	e92d4800 	push	{fp, lr}
4000843c:	e28db004 	add	fp, sp, #4
40008440:	e24dd00c 	sub	sp, sp, #12
40008444:	e50b0008 	str	r0, [fp, #-8]
40008448:	e50b100c 	str	r1, [fp, #-12]
4000844c:	e50b2010 	str	r2, [fp, #-16]
40008450:	e51b3008 	ldr	r3, [fp, #-8]
40008454:	e5d33000 	ldrb	r3, [r3]
40008458:	e353002d 	cmp	r3, #45	; 0x2d
4000845c:	1a000008 	bne	40008484 <simple_strtol+0x4c>
40008460:	e51b3008 	ldr	r3, [fp, #-8]
40008464:	e2833001 	add	r3, r3, #1
40008468:	e1a00003 	mov	r0, r3
4000846c:	e51b100c 	ldr	r1, [fp, #-12]
40008470:	e51b2010 	ldr	r2, [fp, #-16]
40008474:	ebffff86 	bl	40008294 <simple_strtoul>
40008478:	e1a03000 	mov	r3, r0
4000847c:	e2633000 	rsb	r3, r3, #0
40008480:	ea000004 	b	40008498 <simple_strtol+0x60>
40008484:	e51b0008 	ldr	r0, [fp, #-8]
40008488:	e51b100c 	ldr	r1, [fp, #-12]
4000848c:	e51b2010 	ldr	r2, [fp, #-16]
40008490:	ebffff7f 	bl	40008294 <simple_strtoul>
40008494:	e1a03000 	mov	r3, r0
40008498:	e1a00003 	mov	r0, r3
4000849c:	e24bd004 	sub	sp, fp, #4
400084a0:	e8bd8800 	pop	{fp, pc}

400084a4 <skip_atoi>:
400084a4:	e52db004 	push	{fp}		; (str fp, [sp, #-4]!)
400084a8:	e28db000 	add	fp, sp, #0
400084ac:	e24dd008 	sub	sp, sp, #8
400084b0:	e50b0008 	str	r0, [fp, #-8]
400084b4:	e3a03000 	mov	r3, #0
400084b8:	e50b3004 	str	r3, [fp, #-4]
400084bc:	ea00000e 	b	400084fc <skip_atoi+0x58>
400084c0:	e51b2004 	ldr	r2, [fp, #-4]
400084c4:	e1a03002 	mov	r3, r2
400084c8:	e1a03103 	lsl	r3, r3, #2
400084cc:	e0833002 	add	r3, r3, r2
400084d0:	e1a03083 	lsl	r3, r3, #1
400084d4:	e1a01003 	mov	r1, r3
400084d8:	e51b3008 	ldr	r3, [fp, #-8]
400084dc:	e5933000 	ldr	r3, [r3]
400084e0:	e5d32000 	ldrb	r2, [r3]
400084e4:	e0812002 	add	r2, r1, r2
400084e8:	e2422030 	sub	r2, r2, #48	; 0x30
400084ec:	e50b2004 	str	r2, [fp, #-4]
400084f0:	e2832001 	add	r2, r3, #1
400084f4:	e51b3008 	ldr	r3, [fp, #-8]
400084f8:	e5832000 	str	r2, [r3]
400084fc:	e51b3008 	ldr	r3, [fp, #-8]
40008500:	e5933000 	ldr	r3, [r3]
40008504:	e5d33000 	ldrb	r3, [r3]
40008508:	e353002f 	cmp	r3, #47	; 0x2f
4000850c:	9a000004 	bls	40008524 <skip_atoi+0x80>
40008510:	e51b3008 	ldr	r3, [fp, #-8]
40008514:	e5933000 	ldr	r3, [r3]
40008518:	e5d33000 	ldrb	r3, [r3]
4000851c:	e3530039 	cmp	r3, #57	; 0x39
40008520:	9affffe6 	bls	400084c0 <skip_atoi+0x1c>
40008524:	e51b3004 	ldr	r3, [fp, #-4]
40008528:	e1a00003 	mov	r0, r3
4000852c:	e28bd000 	add	sp, fp, #0
40008530:	e8bd0800 	ldmfd	sp!, {fp}
40008534:	e12fff1e 	bx	lr

40008538 <number>:
40008538:	e92d4800 	push	{fp, lr}
4000853c:	e28db004 	add	fp, sp, #4
40008540:	e24dd068 	sub	sp, sp, #104	; 0x68
40008544:	e50b0060 	str	r0, [fp, #-96]	; 0x60
40008548:	e50b1064 	str	r1, [fp, #-100]	; 0x64
4000854c:	e50b2068 	str	r2, [fp, #-104]	; 0x68
40008550:	e50b306c 	str	r3, [fp, #-108]	; 0x6c
40008554:	e59f3468 	ldr	r3, [pc, #1128]	; 400089c4 <number+0x48c>
40008558:	e50b300c 	str	r3, [fp, #-12]
4000855c:	e59b3008 	ldr	r3, [fp, #8]
40008560:	e2033040 	and	r3, r3, #64	; 0x40
40008564:	e3530000 	cmp	r3, #0
40008568:	0a000001 	beq	40008574 <number+0x3c>
4000856c:	e59f3454 	ldr	r3, [pc, #1108]	; 400089c8 <number+0x490>
40008570:	e50b300c 	str	r3, [fp, #-12]
40008574:	e59b3008 	ldr	r3, [fp, #8]
40008578:	e2033010 	and	r3, r3, #16
4000857c:	e3530000 	cmp	r3, #0
40008580:	0a000002 	beq	40008590 <number+0x58>
40008584:	e59b3008 	ldr	r3, [fp, #8]
40008588:	e3c33001 	bic	r3, r3, #1
4000858c:	e58b3008 	str	r3, [fp, #8]
40008590:	e51b3068 	ldr	r3, [fp, #-104]	; 0x68
40008594:	e3530001 	cmp	r3, #1
40008598:	9a000002 	bls	400085a8 <number+0x70>
4000859c:	e51b3068 	ldr	r3, [fp, #-104]	; 0x68
400085a0:	e3530024 	cmp	r3, #36	; 0x24
400085a4:	9a000001 	bls	400085b0 <number+0x78>
400085a8:	e3a03000 	mov	r3, #0
400085ac:	ea000101 	b	400089b8 <number+0x480>
400085b0:	e59b3008 	ldr	r3, [fp, #8]
400085b4:	e2033001 	and	r3, r3, #1
400085b8:	e6ef3073 	uxtb	r3, r3
400085bc:	e3530000 	cmp	r3, #0
400085c0:	0a000001 	beq	400085cc <number+0x94>
400085c4:	e3a03030 	mov	r3, #48	; 0x30
400085c8:	ea000000 	b	400085d0 <number+0x98>
400085cc:	e3a03020 	mov	r3, #32
400085d0:	e54b3011 	strb	r3, [fp, #-17]
400085d4:	e3a03000 	mov	r3, #0
400085d8:	e54b3005 	strb	r3, [fp, #-5]
400085dc:	e59b3008 	ldr	r3, [fp, #8]
400085e0:	e2033002 	and	r3, r3, #2
400085e4:	e3530000 	cmp	r3, #0
400085e8:	0a00001e 	beq	40008668 <number+0x130>
400085ec:	e51b3064 	ldr	r3, [fp, #-100]	; 0x64
400085f0:	e3530000 	cmp	r3, #0
400085f4:	aa000008 	bge	4000861c <number+0xe4>
400085f8:	e3a0302d 	mov	r3, #45	; 0x2d
400085fc:	e54b3005 	strb	r3, [fp, #-5]
40008600:	e51b3064 	ldr	r3, [fp, #-100]	; 0x64
40008604:	e2633000 	rsb	r3, r3, #0
40008608:	e50b3064 	str	r3, [fp, #-100]	; 0x64
4000860c:	e51b306c 	ldr	r3, [fp, #-108]	; 0x6c
40008610:	e2433001 	sub	r3, r3, #1
40008614:	e50b306c 	str	r3, [fp, #-108]	; 0x6c
40008618:	ea000012 	b	40008668 <number+0x130>
4000861c:	e59b3008 	ldr	r3, [fp, #8]
40008620:	e2033004 	and	r3, r3, #4
40008624:	e3530000 	cmp	r3, #0
40008628:	0a000005 	beq	40008644 <number+0x10c>
4000862c:	e3a0302b 	mov	r3, #43	; 0x2b
40008630:	e54b3005 	strb	r3, [fp, #-5]
40008634:	e51b306c 	ldr	r3, [fp, #-108]	; 0x6c
40008638:	e2433001 	sub	r3, r3, #1
4000863c:	e50b306c 	str	r3, [fp, #-108]	; 0x6c
40008640:	ea000008 	b	40008668 <number+0x130>
40008644:	e59b3008 	ldr	r3, [fp, #8]
40008648:	e2033008 	and	r3, r3, #8
4000864c:	e3530000 	cmp	r3, #0
40008650:	0a000004 	beq	40008668 <number+0x130>
40008654:	e3a03020 	mov	r3, #32
40008658:	e54b3005 	strb	r3, [fp, #-5]
4000865c:	e51b306c 	ldr	r3, [fp, #-108]	; 0x6c
40008660:	e2433001 	sub	r3, r3, #1
40008664:	e50b306c 	str	r3, [fp, #-108]	; 0x6c
40008668:	e59b3008 	ldr	r3, [fp, #8]
4000866c:	e2033020 	and	r3, r3, #32
40008670:	e3530000 	cmp	r3, #0
40008674:	0a00000c 	beq	400086ac <number+0x174>
40008678:	e51b3068 	ldr	r3, [fp, #-104]	; 0x68
4000867c:	e3530010 	cmp	r3, #16
40008680:	1a000003 	bne	40008694 <number+0x15c>
40008684:	e51b306c 	ldr	r3, [fp, #-108]	; 0x6c
40008688:	e2433002 	sub	r3, r3, #2
4000868c:	e50b306c 	str	r3, [fp, #-108]	; 0x6c
40008690:	ea000005 	b	400086ac <number+0x174>
40008694:	e51b3068 	ldr	r3, [fp, #-104]	; 0x68
40008698:	e3530008 	cmp	r3, #8
4000869c:	1a000002 	bne	400086ac <number+0x174>
400086a0:	e51b306c 	ldr	r3, [fp, #-108]	; 0x6c
400086a4:	e2433001 	sub	r3, r3, #1
400086a8:	e50b306c 	str	r3, [fp, #-108]	; 0x6c
400086ac:	e3a03000 	mov	r3, #0
400086b0:	e50b3010 	str	r3, [fp, #-16]
400086b4:	e51b3064 	ldr	r3, [fp, #-100]	; 0x64
400086b8:	e3530000 	cmp	r3, #0
400086bc:	1a000027 	bne	40008760 <number+0x228>
400086c0:	e3e03057 	mvn	r3, #87	; 0x57
400086c4:	e51b2010 	ldr	r2, [fp, #-16]
400086c8:	e24b0004 	sub	r0, fp, #4
400086cc:	e0802002 	add	r2, r0, r2
400086d0:	e0823003 	add	r3, r2, r3
400086d4:	e3a02030 	mov	r2, #48	; 0x30
400086d8:	e5c32000 	strb	r2, [r3]
400086dc:	e51b3010 	ldr	r3, [fp, #-16]
400086e0:	e2833001 	add	r3, r3, #1
400086e4:	e50b3010 	str	r3, [fp, #-16]
400086e8:	ea00001f 	b	4000876c <number+0x234>
400086ec:	e51b2010 	ldr	r2, [fp, #-16]
400086f0:	e59b3004 	ldr	r3, [fp, #4]
400086f4:	e1520003 	cmp	r2, r3
400086f8:	da000018 	ble	40008760 <number+0x228>
400086fc:	e51b3064 	ldr	r3, [fp, #-100]	; 0x64
40008700:	e1a00003 	mov	r0, r3
40008704:	e51b1068 	ldr	r1, [fp, #-104]	; 0x68
40008708:	ebfffea1 	bl	40008194 <__umodsi3>
4000870c:	e1a03000 	mov	r3, r0
40008710:	e50b3018 	str	r3, [fp, #-24]
40008714:	e51b3064 	ldr	r3, [fp, #-100]	; 0x64
40008718:	e1a00003 	mov	r0, r3
4000871c:	e51b1068 	ldr	r1, [fp, #-104]	; 0x68
40008720:	ebfffe76 	bl	40008100 <__udivsi3>
40008724:	e1a03000 	mov	r3, r0
40008728:	e50b3064 	str	r3, [fp, #-100]	; 0x64
4000872c:	e51b3018 	ldr	r3, [fp, #-24]
40008730:	e51b200c 	ldr	r2, [fp, #-12]
40008734:	e0823003 	add	r3, r2, r3
40008738:	e5d32000 	ldrb	r2, [r3]
4000873c:	e3e03057 	mvn	r3, #87	; 0x57
40008740:	e51b1010 	ldr	r1, [fp, #-16]
40008744:	e24b0004 	sub	r0, fp, #4
40008748:	e0801001 	add	r1, r0, r1
4000874c:	e0813003 	add	r3, r1, r3
40008750:	e5c32000 	strb	r2, [r3]
40008754:	e51b3010 	ldr	r3, [fp, #-16]
40008758:	e2833001 	add	r3, r3, #1
4000875c:	e50b3010 	str	r3, [fp, #-16]
40008760:	e51b3064 	ldr	r3, [fp, #-100]	; 0x64
40008764:	e3530000 	cmp	r3, #0
40008768:	1affffdf 	bne	400086ec <number+0x1b4>
4000876c:	e51b3010 	ldr	r3, [fp, #-16]
40008770:	e58b3004 	str	r3, [fp, #4]
40008774:	e51b206c 	ldr	r2, [fp, #-108]	; 0x6c
40008778:	e59b3004 	ldr	r3, [fp, #4]
4000877c:	e0633002 	rsb	r3, r3, r2
40008780:	e50b306c 	str	r3, [fp, #-108]	; 0x6c
40008784:	e59b3008 	ldr	r3, [fp, #8]
40008788:	e2033011 	and	r3, r3, #17
4000878c:	e3530000 	cmp	r3, #0
40008790:	1a000010 	bne	400087d8 <number+0x2a0>
40008794:	ea000005 	b	400087b0 <number+0x278>
40008798:	e51b3060 	ldr	r3, [fp, #-96]	; 0x60
4000879c:	e3a02020 	mov	r2, #32
400087a0:	e5c32000 	strb	r2, [r3]
400087a4:	e51b3060 	ldr	r3, [fp, #-96]	; 0x60
400087a8:	e2833001 	add	r3, r3, #1
400087ac:	e50b3060 	str	r3, [fp, #-96]	; 0x60
400087b0:	e51b306c 	ldr	r3, [fp, #-108]	; 0x6c
400087b4:	e3530000 	cmp	r3, #0
400087b8:	d3a03000 	movle	r3, #0
400087bc:	c3a03001 	movgt	r3, #1
400087c0:	e6ef3073 	uxtb	r3, r3
400087c4:	e51b206c 	ldr	r2, [fp, #-108]	; 0x6c
400087c8:	e2422001 	sub	r2, r2, #1
400087cc:	e50b206c 	str	r2, [fp, #-108]	; 0x6c
400087d0:	e3530000 	cmp	r3, #0
400087d4:	1affffef 	bne	40008798 <number+0x260>
400087d8:	e55b3005 	ldrb	r3, [fp, #-5]
400087dc:	e3530000 	cmp	r3, #0
400087e0:	0a000005 	beq	400087fc <number+0x2c4>
400087e4:	e51b3060 	ldr	r3, [fp, #-96]	; 0x60
400087e8:	e55b2005 	ldrb	r2, [fp, #-5]
400087ec:	e5c32000 	strb	r2, [r3]
400087f0:	e51b3060 	ldr	r3, [fp, #-96]	; 0x60
400087f4:	e2833001 	add	r3, r3, #1
400087f8:	e50b3060 	str	r3, [fp, #-96]	; 0x60
400087fc:	e59b3008 	ldr	r3, [fp, #8]
40008800:	e2033020 	and	r3, r3, #32
40008804:	e3530000 	cmp	r3, #0
40008808:	0a000019 	beq	40008874 <number+0x33c>
4000880c:	e51b3068 	ldr	r3, [fp, #-104]	; 0x68
40008810:	e3530008 	cmp	r3, #8
40008814:	1a000006 	bne	40008834 <number+0x2fc>
40008818:	e51b3060 	ldr	r3, [fp, #-96]	; 0x60
4000881c:	e3a02030 	mov	r2, #48	; 0x30
40008820:	e5c32000 	strb	r2, [r3]
40008824:	e51b3060 	ldr	r3, [fp, #-96]	; 0x60
40008828:	e2833001 	add	r3, r3, #1
4000882c:	e50b3060 	str	r3, [fp, #-96]	; 0x60
40008830:	ea00000f 	b	40008874 <number+0x33c>
40008834:	e51b3068 	ldr	r3, [fp, #-104]	; 0x68
40008838:	e3530010 	cmp	r3, #16
4000883c:	1a00000c 	bne	40008874 <number+0x33c>
40008840:	e51b3060 	ldr	r3, [fp, #-96]	; 0x60
40008844:	e3a02030 	mov	r2, #48	; 0x30
40008848:	e5c32000 	strb	r2, [r3]
4000884c:	e51b3060 	ldr	r3, [fp, #-96]	; 0x60
40008850:	e2833001 	add	r3, r3, #1
40008854:	e50b3060 	str	r3, [fp, #-96]	; 0x60
40008858:	e51b300c 	ldr	r3, [fp, #-12]
4000885c:	e5d32021 	ldrb	r2, [r3, #33]	; 0x21
40008860:	e51b3060 	ldr	r3, [fp, #-96]	; 0x60
40008864:	e5c32000 	strb	r2, [r3]
40008868:	e51b3060 	ldr	r3, [fp, #-96]	; 0x60
4000886c:	e2833001 	add	r3, r3, #1
40008870:	e50b3060 	str	r3, [fp, #-96]	; 0x60
40008874:	e59b3008 	ldr	r3, [fp, #8]
40008878:	e2033010 	and	r3, r3, #16
4000887c:	e3530000 	cmp	r3, #0
40008880:	1a000018 	bne	400088e8 <number+0x3b0>
40008884:	ea000005 	b	400088a0 <number+0x368>
40008888:	e51b3060 	ldr	r3, [fp, #-96]	; 0x60
4000888c:	e55b2011 	ldrb	r2, [fp, #-17]
40008890:	e5c32000 	strb	r2, [r3]
40008894:	e51b3060 	ldr	r3, [fp, #-96]	; 0x60
40008898:	e2833001 	add	r3, r3, #1
4000889c:	e50b3060 	str	r3, [fp, #-96]	; 0x60
400088a0:	e51b306c 	ldr	r3, [fp, #-108]	; 0x6c
400088a4:	e3530000 	cmp	r3, #0
400088a8:	d3a03000 	movle	r3, #0
400088ac:	c3a03001 	movgt	r3, #1
400088b0:	e6ef3073 	uxtb	r3, r3
400088b4:	e51b206c 	ldr	r2, [fp, #-108]	; 0x6c
400088b8:	e2422001 	sub	r2, r2, #1
400088bc:	e50b206c 	str	r2, [fp, #-108]	; 0x6c
400088c0:	e3530000 	cmp	r3, #0
400088c4:	1affffef 	bne	40008888 <number+0x350>
400088c8:	ea000006 	b	400088e8 <number+0x3b0>
400088cc:	e51b3060 	ldr	r3, [fp, #-96]	; 0x60
400088d0:	e3a02030 	mov	r2, #48	; 0x30
400088d4:	e5c32000 	strb	r2, [r3]
400088d8:	e51b3060 	ldr	r3, [fp, #-96]	; 0x60
400088dc:	e2833001 	add	r3, r3, #1
400088e0:	e50b3060 	str	r3, [fp, #-96]	; 0x60
400088e4:	ea000000 	b	400088ec <number+0x3b4>
400088e8:	e1a00000 	nop			; (mov r0, r0)
400088ec:	e59b2004 	ldr	r2, [fp, #4]
400088f0:	e51b3010 	ldr	r3, [fp, #-16]
400088f4:	e1520003 	cmp	r2, r3
400088f8:	d3a03000 	movle	r3, #0
400088fc:	c3a03001 	movgt	r3, #1
40008900:	e6ef3073 	uxtb	r3, r3
40008904:	e59b2004 	ldr	r2, [fp, #4]
40008908:	e2422001 	sub	r2, r2, #1
4000890c:	e58b2004 	str	r2, [fp, #4]
40008910:	e3530000 	cmp	r3, #0
40008914:	1affffec 	bne	400088cc <number+0x394>
40008918:	ea00000a 	b	40008948 <number+0x410>
4000891c:	e3e03057 	mvn	r3, #87	; 0x57
40008920:	e51b2010 	ldr	r2, [fp, #-16]
40008924:	e24b1004 	sub	r1, fp, #4
40008928:	e0812002 	add	r2, r1, r2
4000892c:	e0823003 	add	r3, r2, r3
40008930:	e5d32000 	ldrb	r2, [r3]
40008934:	e51b3060 	ldr	r3, [fp, #-96]	; 0x60
40008938:	e5c32000 	strb	r2, [r3]
4000893c:	e51b3060 	ldr	r3, [fp, #-96]	; 0x60
40008940:	e2833001 	add	r3, r3, #1
40008944:	e50b3060 	str	r3, [fp, #-96]	; 0x60
40008948:	e51b3010 	ldr	r3, [fp, #-16]
4000894c:	e3530000 	cmp	r3, #0
40008950:	d3a03000 	movle	r3, #0
40008954:	c3a03001 	movgt	r3, #1
40008958:	e6ef3073 	uxtb	r3, r3
4000895c:	e51b2010 	ldr	r2, [fp, #-16]
40008960:	e2422001 	sub	r2, r2, #1
40008964:	e50b2010 	str	r2, [fp, #-16]
40008968:	e3530000 	cmp	r3, #0
4000896c:	1affffea 	bne	4000891c <number+0x3e4>
40008970:	ea000005 	b	4000898c <number+0x454>
40008974:	e51b3060 	ldr	r3, [fp, #-96]	; 0x60
40008978:	e3a02020 	mov	r2, #32
4000897c:	e5c32000 	strb	r2, [r3]
40008980:	e51b3060 	ldr	r3, [fp, #-96]	; 0x60
40008984:	e2833001 	add	r3, r3, #1
40008988:	e50b3060 	str	r3, [fp, #-96]	; 0x60
4000898c:	e51b306c 	ldr	r3, [fp, #-108]	; 0x6c
40008990:	e3530000 	cmp	r3, #0
40008994:	d3a03000 	movle	r3, #0
40008998:	c3a03001 	movgt	r3, #1
4000899c:	e6ef3073 	uxtb	r3, r3
400089a0:	e51b206c 	ldr	r2, [fp, #-108]	; 0x6c
400089a4:	e2422001 	sub	r2, r2, #1
400089a8:	e50b206c 	str	r2, [fp, #-108]	; 0x6c
400089ac:	e3530000 	cmp	r3, #0
400089b0:	1affffef 	bne	40008974 <number+0x43c>
400089b4:	e51b3060 	ldr	r3, [fp, #-96]	; 0x60
400089b8:	e1a00003 	mov	r0, r3
400089bc:	e24bd004 	sub	sp, fp, #4
400089c0:	e8bd8800 	pop	{fp, pc}
400089c4:	40009938 	andmi	r9, r0, r8, lsr r9
400089c8:	40009960 	andmi	r9, r0, r0, ror #18

400089cc <strnlen>:
400089cc:	e52db004 	push	{fp}		; (str fp, [sp, #-4]!)
400089d0:	e28db000 	add	fp, sp, #0
400089d4:	e24dd00c 	sub	sp, sp, #12
400089d8:	e50b0008 	str	r0, [fp, #-8]
400089dc:	e50b100c 	str	r1, [fp, #-12]
400089e0:	e51b3008 	ldr	r3, [fp, #-8]
400089e4:	e50b3004 	str	r3, [fp, #-4]
400089e8:	ea000002 	b	400089f8 <strnlen+0x2c>
400089ec:	e51b3004 	ldr	r3, [fp, #-4]
400089f0:	e2833001 	add	r3, r3, #1
400089f4:	e50b3004 	str	r3, [fp, #-4]
400089f8:	e51b300c 	ldr	r3, [fp, #-12]
400089fc:	e3530000 	cmp	r3, #0
40008a00:	03a03000 	moveq	r3, #0
40008a04:	13a03001 	movne	r3, #1
40008a08:	e6ef3073 	uxtb	r3, r3
40008a0c:	e51b200c 	ldr	r2, [fp, #-12]
40008a10:	e2422001 	sub	r2, r2, #1
40008a14:	e50b200c 	str	r2, [fp, #-12]
40008a18:	e3530000 	cmp	r3, #0
40008a1c:	0a000003 	beq	40008a30 <strnlen+0x64>
40008a20:	e51b3004 	ldr	r3, [fp, #-4]
40008a24:	e5d33000 	ldrb	r3, [r3]
40008a28:	e3530000 	cmp	r3, #0
40008a2c:	1affffee 	bne	400089ec <strnlen+0x20>
40008a30:	e51b2004 	ldr	r2, [fp, #-4]
40008a34:	e51b3008 	ldr	r3, [fp, #-8]
40008a38:	e0633002 	rsb	r3, r3, r2
40008a3c:	e1a00003 	mov	r0, r3
40008a40:	e28bd000 	add	sp, fp, #0
40008a44:	e8bd0800 	ldmfd	sp!, {fp}
40008a48:	e12fff1e 	bx	lr

40008a4c <vsprintf>:
40008a4c:	e92d4800 	push	{fp, lr}
40008a50:	e28db004 	add	fp, sp, #4
40008a54:	e24dd044 	sub	sp, sp, #68	; 0x44
40008a58:	e50b0038 	str	r0, [fp, #-56]	; 0x38
40008a5c:	e50b103c 	str	r1, [fp, #-60]	; 0x3c
40008a60:	e50b2040 	str	r2, [fp, #-64]	; 0x40
40008a64:	e51b3038 	ldr	r3, [fp, #-56]	; 0x38
40008a68:	e50b3014 	str	r3, [fp, #-20]
40008a6c:	ea000232 	b	4000933c <vsprintf+0x8f0>
40008a70:	e51b303c 	ldr	r3, [fp, #-60]	; 0x3c
40008a74:	e5d33000 	ldrb	r3, [r3]
40008a78:	e3530025 	cmp	r3, #37	; 0x25
40008a7c:	0a000007 	beq	40008aa0 <vsprintf+0x54>
40008a80:	e51b303c 	ldr	r3, [fp, #-60]	; 0x3c
40008a84:	e5d32000 	ldrb	r2, [r3]
40008a88:	e51b3014 	ldr	r3, [fp, #-20]
40008a8c:	e5c32000 	strb	r2, [r3]
40008a90:	e51b3014 	ldr	r3, [fp, #-20]
40008a94:	e2833001 	add	r3, r3, #1
40008a98:	e50b3014 	str	r3, [fp, #-20]
40008a9c:	ea000223 	b	40009330 <vsprintf+0x8e4>
40008aa0:	e3a03000 	mov	r3, #0
40008aa4:	e50b301c 	str	r3, [fp, #-28]
40008aa8:	e51b303c 	ldr	r3, [fp, #-60]	; 0x3c
40008aac:	e2833001 	add	r3, r3, #1
40008ab0:	e50b303c 	str	r3, [fp, #-60]	; 0x3c
40008ab4:	e51b303c 	ldr	r3, [fp, #-60]	; 0x3c
40008ab8:	e5d33000 	ldrb	r3, [r3]
40008abc:	e2433020 	sub	r3, r3, #32
40008ac0:	e3530010 	cmp	r3, #16
40008ac4:	979ff103 	ldrls	pc, [pc, r3, lsl #2]
40008ac8:	ea000024 	b	40008b60 <vsprintf+0x114>
40008acc:	40008b30 	andmi	r8, r0, r0, lsr fp
40008ad0:	40008b60 	andmi	r8, r0, r0, ror #22
40008ad4:	40008b60 	andmi	r8, r0, r0, ror #22
40008ad8:	40008b40 	andmi	r8, r0, r0, asr #22
40008adc:	40008b60 	andmi	r8, r0, r0, ror #22
40008ae0:	40008b60 	andmi	r8, r0, r0, ror #22
40008ae4:	40008b60 	andmi	r8, r0, r0, ror #22
40008ae8:	40008b60 	andmi	r8, r0, r0, ror #22
40008aec:	40008b60 	andmi	r8, r0, r0, ror #22
40008af0:	40008b60 	andmi	r8, r0, r0, ror #22
40008af4:	40008b60 	andmi	r8, r0, r0, ror #22
40008af8:	40008b20 	andmi	r8, r0, r0, lsr #22
40008afc:	40008b60 	andmi	r8, r0, r0, ror #22
40008b00:	40008b10 	andmi	r8, r0, r0, lsl fp
40008b04:	40008b60 	andmi	r8, r0, r0, ror #22
40008b08:	40008b60 	andmi	r8, r0, r0, ror #22
40008b0c:	40008b50 	andmi	r8, r0, r0, asr fp
40008b10:	e51b301c 	ldr	r3, [fp, #-28]
40008b14:	e3833010 	orr	r3, r3, #16
40008b18:	e50b301c 	str	r3, [fp, #-28]
40008b1c:	eaffffe1 	b	40008aa8 <vsprintf+0x5c>
40008b20:	e51b301c 	ldr	r3, [fp, #-28]
40008b24:	e3833004 	orr	r3, r3, #4
40008b28:	e50b301c 	str	r3, [fp, #-28]
40008b2c:	eaffffdd 	b	40008aa8 <vsprintf+0x5c>
40008b30:	e51b301c 	ldr	r3, [fp, #-28]
40008b34:	e3833008 	orr	r3, r3, #8
40008b38:	e50b301c 	str	r3, [fp, #-28]
40008b3c:	eaffffd9 	b	40008aa8 <vsprintf+0x5c>
40008b40:	e51b301c 	ldr	r3, [fp, #-28]
40008b44:	e3833020 	orr	r3, r3, #32
40008b48:	e50b301c 	str	r3, [fp, #-28]
40008b4c:	eaffffd5 	b	40008aa8 <vsprintf+0x5c>
40008b50:	e51b301c 	ldr	r3, [fp, #-28]
40008b54:	e3833001 	orr	r3, r3, #1
40008b58:	e50b301c 	str	r3, [fp, #-28]
40008b5c:	eaffffd1 	b	40008aa8 <vsprintf+0x5c>
40008b60:	e3e03000 	mvn	r3, #0
40008b64:	e50b3020 	str	r3, [fp, #-32]
40008b68:	e51b303c 	ldr	r3, [fp, #-60]	; 0x3c
40008b6c:	e5d33000 	ldrb	r3, [r3]
40008b70:	e353002f 	cmp	r3, #47	; 0x2f
40008b74:	9a000008 	bls	40008b9c <vsprintf+0x150>
40008b78:	e51b303c 	ldr	r3, [fp, #-60]	; 0x3c
40008b7c:	e5d33000 	ldrb	r3, [r3]
40008b80:	e3530039 	cmp	r3, #57	; 0x39
40008b84:	8a000004 	bhi	40008b9c <vsprintf+0x150>
40008b88:	e24b303c 	sub	r3, fp, #60	; 0x3c
40008b8c:	e1a00003 	mov	r0, r3
40008b90:	ebfffe43 	bl	400084a4 <skip_atoi>
40008b94:	e50b0020 	str	r0, [fp, #-32]
40008b98:	ea000014 	b	40008bf0 <vsprintf+0x1a4>
40008b9c:	e51b303c 	ldr	r3, [fp, #-60]	; 0x3c
40008ba0:	e5d33000 	ldrb	r3, [r3]
40008ba4:	e353002a 	cmp	r3, #42	; 0x2a
40008ba8:	1a000010 	bne	40008bf0 <vsprintf+0x1a4>
40008bac:	e51b303c 	ldr	r3, [fp, #-60]	; 0x3c
40008bb0:	e2833001 	add	r3, r3, #1
40008bb4:	e50b303c 	str	r3, [fp, #-60]	; 0x3c
40008bb8:	e51b3040 	ldr	r3, [fp, #-64]	; 0x40
40008bbc:	e2832004 	add	r2, r3, #4
40008bc0:	e50b2040 	str	r2, [fp, #-64]	; 0x40
40008bc4:	e5933000 	ldr	r3, [r3]
40008bc8:	e50b3020 	str	r3, [fp, #-32]
40008bcc:	e51b3020 	ldr	r3, [fp, #-32]
40008bd0:	e3530000 	cmp	r3, #0
40008bd4:	aa000005 	bge	40008bf0 <vsprintf+0x1a4>
40008bd8:	e51b3020 	ldr	r3, [fp, #-32]
40008bdc:	e2633000 	rsb	r3, r3, #0
40008be0:	e50b3020 	str	r3, [fp, #-32]
40008be4:	e51b301c 	ldr	r3, [fp, #-28]
40008be8:	e3833010 	orr	r3, r3, #16
40008bec:	e50b301c 	str	r3, [fp, #-28]
40008bf0:	e3e03000 	mvn	r3, #0
40008bf4:	e50b3024 	str	r3, [fp, #-36]	; 0x24
40008bf8:	e51b303c 	ldr	r3, [fp, #-60]	; 0x3c
40008bfc:	e5d33000 	ldrb	r3, [r3]
40008c00:	e353002e 	cmp	r3, #46	; 0x2e
40008c04:	1a000020 	bne	40008c8c <vsprintf+0x240>
40008c08:	e51b303c 	ldr	r3, [fp, #-60]	; 0x3c
40008c0c:	e2833001 	add	r3, r3, #1
40008c10:	e50b303c 	str	r3, [fp, #-60]	; 0x3c
40008c14:	e51b303c 	ldr	r3, [fp, #-60]	; 0x3c
40008c18:	e5d33000 	ldrb	r3, [r3]
40008c1c:	e353002f 	cmp	r3, #47	; 0x2f
40008c20:	9a000008 	bls	40008c48 <vsprintf+0x1fc>
40008c24:	e51b303c 	ldr	r3, [fp, #-60]	; 0x3c
40008c28:	e5d33000 	ldrb	r3, [r3]
40008c2c:	e3530039 	cmp	r3, #57	; 0x39
40008c30:	8a000004 	bhi	40008c48 <vsprintf+0x1fc>
40008c34:	e24b303c 	sub	r3, fp, #60	; 0x3c
40008c38:	e1a00003 	mov	r0, r3
40008c3c:	ebfffe18 	bl	400084a4 <skip_atoi>
40008c40:	e50b0024 	str	r0, [fp, #-36]	; 0x24
40008c44:	ea00000b 	b	40008c78 <vsprintf+0x22c>
40008c48:	e51b303c 	ldr	r3, [fp, #-60]	; 0x3c
40008c4c:	e5d33000 	ldrb	r3, [r3]
40008c50:	e353002a 	cmp	r3, #42	; 0x2a
40008c54:	1a000007 	bne	40008c78 <vsprintf+0x22c>
40008c58:	e51b303c 	ldr	r3, [fp, #-60]	; 0x3c
40008c5c:	e2833001 	add	r3, r3, #1
40008c60:	e50b303c 	str	r3, [fp, #-60]	; 0x3c
40008c64:	e51b3040 	ldr	r3, [fp, #-64]	; 0x40
40008c68:	e2832004 	add	r2, r3, #4
40008c6c:	e50b2040 	str	r2, [fp, #-64]	; 0x40
40008c70:	e5933000 	ldr	r3, [r3]
40008c74:	e50b3024 	str	r3, [fp, #-36]	; 0x24
40008c78:	e51b3024 	ldr	r3, [fp, #-36]	; 0x24
40008c7c:	e3530000 	cmp	r3, #0
40008c80:	aa000001 	bge	40008c8c <vsprintf+0x240>
40008c84:	e3a03000 	mov	r3, #0
40008c88:	e50b3024 	str	r3, [fp, #-36]	; 0x24
40008c8c:	e3e03000 	mvn	r3, #0
40008c90:	e50b3028 	str	r3, [fp, #-40]	; 0x28
40008c94:	e51b303c 	ldr	r3, [fp, #-60]	; 0x3c
40008c98:	e5d33000 	ldrb	r3, [r3]
40008c9c:	e3530068 	cmp	r3, #104	; 0x68
40008ca0:	0a000017 	beq	40008d04 <vsprintf+0x2b8>
40008ca4:	e51b303c 	ldr	r3, [fp, #-60]	; 0x3c
40008ca8:	e5d33000 	ldrb	r3, [r3]
40008cac:	e353006c 	cmp	r3, #108	; 0x6c
40008cb0:	0a000013 	beq	40008d04 <vsprintf+0x2b8>
40008cb4:	e51b303c 	ldr	r3, [fp, #-60]	; 0x3c
40008cb8:	e5d33000 	ldrb	r3, [r3]
40008cbc:	e353004c 	cmp	r3, #76	; 0x4c
40008cc0:	0a00000f 	beq	40008d04 <vsprintf+0x2b8>
40008cc4:	e51b303c 	ldr	r3, [fp, #-60]	; 0x3c
40008cc8:	e5d33000 	ldrb	r3, [r3]
40008ccc:	e353005a 	cmp	r3, #90	; 0x5a
40008cd0:	0a00000b 	beq	40008d04 <vsprintf+0x2b8>
40008cd4:	e51b303c 	ldr	r3, [fp, #-60]	; 0x3c
40008cd8:	e5d33000 	ldrb	r3, [r3]
40008cdc:	e353007a 	cmp	r3, #122	; 0x7a
40008ce0:	0a000007 	beq	40008d04 <vsprintf+0x2b8>
40008ce4:	e51b303c 	ldr	r3, [fp, #-60]	; 0x3c
40008ce8:	e5d33000 	ldrb	r3, [r3]
40008cec:	e3530074 	cmp	r3, #116	; 0x74
40008cf0:	0a000003 	beq	40008d04 <vsprintf+0x2b8>
40008cf4:	e51b303c 	ldr	r3, [fp, #-60]	; 0x3c
40008cf8:	e5d33000 	ldrb	r3, [r3]
40008cfc:	e3530071 	cmp	r3, #113	; 0x71
40008d00:	1a000012 	bne	40008d50 <vsprintf+0x304>
40008d04:	e51b303c 	ldr	r3, [fp, #-60]	; 0x3c
40008d08:	e5d33000 	ldrb	r3, [r3]
40008d0c:	e50b3028 	str	r3, [fp, #-40]	; 0x28
40008d10:	e51b3028 	ldr	r3, [fp, #-40]	; 0x28
40008d14:	e353006c 	cmp	r3, #108	; 0x6c
40008d18:	1a000009 	bne	40008d44 <vsprintf+0x2f8>
40008d1c:	e51b303c 	ldr	r3, [fp, #-60]	; 0x3c
40008d20:	e2833001 	add	r3, r3, #1
40008d24:	e5d33000 	ldrb	r3, [r3]
40008d28:	e353006c 	cmp	r3, #108	; 0x6c
40008d2c:	1a000004 	bne	40008d44 <vsprintf+0x2f8>
40008d30:	e3a03071 	mov	r3, #113	; 0x71
40008d34:	e50b3028 	str	r3, [fp, #-40]	; 0x28
40008d38:	e51b303c 	ldr	r3, [fp, #-60]	; 0x3c
40008d3c:	e2833001 	add	r3, r3, #1
40008d40:	e50b303c 	str	r3, [fp, #-60]	; 0x3c
40008d44:	e51b303c 	ldr	r3, [fp, #-60]	; 0x3c
40008d48:	e2833001 	add	r3, r3, #1
40008d4c:	e50b303c 	str	r3, [fp, #-60]	; 0x3c
40008d50:	e3a0300a 	mov	r3, #10
40008d54:	e50b3010 	str	r3, [fp, #-16]
40008d58:	e51b303c 	ldr	r3, [fp, #-60]	; 0x3c
40008d5c:	e5d33000 	ldrb	r3, [r3]
40008d60:	e2433025 	sub	r3, r3, #37	; 0x25
40008d64:	e3530053 	cmp	r3, #83	; 0x53
40008d68:	979ff103 	ldrls	pc, [pc, r3, lsl #2]
40008d6c:	ea00010d 	b	400091a8 <vsprintf+0x75c>
40008d70:	40009158 	andmi	r9, r0, r8, asr r1
40008d74:	400091a8 	andmi	r9, r0, r8, lsr #3
40008d78:	400091a8 	andmi	r9, r0, r8, lsr #3
40008d7c:	400091a8 	andmi	r9, r0, r8, lsr #3
40008d80:	400091a8 	andmi	r9, r0, r8, lsr #3
40008d84:	400091a8 	andmi	r9, r0, r8, lsr #3
40008d88:	400091a8 	andmi	r9, r0, r8, lsr #3
40008d8c:	400091a8 	andmi	r9, r0, r8, lsr #3
40008d90:	400091a8 	andmi	r9, r0, r8, lsr #3
40008d94:	400091a8 	andmi	r9, r0, r8, lsr #3
40008d98:	400091a8 	andmi	r9, r0, r8, lsr #3
40008d9c:	400091a8 	andmi	r9, r0, r8, lsr #3
40008da0:	400091a8 	andmi	r9, r0, r8, lsr #3
40008da4:	400091a8 	andmi	r9, r0, r8, lsr #3
40008da8:	400091a8 	andmi	r9, r0, r8, lsr #3
40008dac:	400091a8 	andmi	r9, r0, r8, lsr #3
40008db0:	400091a8 	andmi	r9, r0, r8, lsr #3
40008db4:	400091a8 	andmi	r9, r0, r8, lsr #3
40008db8:	400091a8 	andmi	r9, r0, r8, lsr #3
40008dbc:	400091a8 	andmi	r9, r0, r8, lsr #3
40008dc0:	400091a8 	andmi	r9, r0, r8, lsr #3
40008dc4:	400091a8 	andmi	r9, r0, r8, lsr #3
40008dc8:	400091a8 	andmi	r9, r0, r8, lsr #3
40008dcc:	400091a8 	andmi	r9, r0, r8, lsr #3
40008dd0:	400091a8 	andmi	r9, r0, r8, lsr #3
40008dd4:	400091a8 	andmi	r9, r0, r8, lsr #3
40008dd8:	400091a8 	andmi	r9, r0, r8, lsr #3
40008ddc:	400091a8 	andmi	r9, r0, r8, lsr #3
40008de0:	400091a8 	andmi	r9, r0, r8, lsr #3
40008de4:	400091a8 	andmi	r9, r0, r8, lsr #3
40008de8:	400091a8 	andmi	r9, r0, r8, lsr #3
40008dec:	400091a8 	andmi	r9, r0, r8, lsr #3
40008df0:	400091a8 	andmi	r9, r0, r8, lsr #3
40008df4:	400091a8 	andmi	r9, r0, r8, lsr #3
40008df8:	400091a8 	andmi	r9, r0, r8, lsr #3
40008dfc:	400091a8 	andmi	r9, r0, r8, lsr #3
40008e00:	400091a8 	andmi	r9, r0, r8, lsr #3
40008e04:	400091a8 	andmi	r9, r0, r8, lsr #3
40008e08:	400091a8 	andmi	r9, r0, r8, lsr #3
40008e0c:	400091a8 	andmi	r9, r0, r8, lsr #3
40008e10:	400091a8 	andmi	r9, r0, r8, lsr #3
40008e14:	400091a8 	andmi	r9, r0, r8, lsr #3
40008e18:	400091a8 	andmi	r9, r0, r8, lsr #3
40008e1c:	400091a8 	andmi	r9, r0, r8, lsr #3
40008e20:	400091a8 	andmi	r9, r0, r8, lsr #3
40008e24:	400091a8 	andmi	r9, r0, r8, lsr #3
40008e28:	400091a8 	andmi	r9, r0, r8, lsr #3
40008e2c:	400091a8 	andmi	r9, r0, r8, lsr #3
40008e30:	400091a8 	andmi	r9, r0, r8, lsr #3
40008e34:	400091a8 	andmi	r9, r0, r8, lsr #3
40008e38:	400091a8 	andmi	r9, r0, r8, lsr #3
40008e3c:	40009180 	andmi	r9, r0, r0, lsl #3
40008e40:	400091a8 	andmi	r9, r0, r8, lsr #3
40008e44:	400091a8 	andmi	r9, r0, r8, lsr #3
40008e48:	400091a8 	andmi	r9, r0, r8, lsr #3
40008e4c:	400091a8 	andmi	r9, r0, r8, lsr #3
40008e50:	400091a8 	andmi	r9, r0, r8, lsr #3
40008e54:	400091a8 	andmi	r9, r0, r8, lsr #3
40008e58:	400091a8 	andmi	r9, r0, r8, lsr #3
40008e5c:	400091a8 	andmi	r9, r0, r8, lsr #3
40008e60:	400091a8 	andmi	r9, r0, r8, lsr #3
40008e64:	400091a8 	andmi	r9, r0, r8, lsr #3
40008e68:	40008ec0 	andmi	r8, r0, r0, asr #29
40008e6c:	40009198 	mulmi	r0, r8, r1
40008e70:	400091a8 	andmi	r9, r0, r8, lsr #3
40008e74:	400091a8 	andmi	r9, r0, r8, lsr #3
40008e78:	400091a8 	andmi	r9, r0, r8, lsr #3
40008e7c:	400091a8 	andmi	r9, r0, r8, lsr #3
40008e80:	40009198 	mulmi	r0, r8, r1
40008e84:	400091a8 	andmi	r9, r0, r8, lsr #3
40008e88:	400091a8 	andmi	r9, r0, r8, lsr #3
40008e8c:	400091a8 	andmi	r9, r0, r8, lsr #3
40008e90:	400091a8 	andmi	r9, r0, r8, lsr #3
40008e94:	400090f4 	strdmi	r9, [r0], -r4
40008e98:	40009174 	andmi	r9, r0, r4, ror r1
40008e9c:	40009098 	mulmi	r0, r8, r0
40008ea0:	400091a8 	andmi	r9, r0, r8, lsr #3
40008ea4:	400091a8 	andmi	r9, r0, r8, lsr #3
40008ea8:	40008f64 	andmi	r8, r0, r4, ror #30
40008eac:	400091a8 	andmi	r9, r0, r8, lsr #3
40008eb0:	40009200 	andmi	r9, r0, r0, lsl #4
40008eb4:	400091a8 	andmi	r9, r0, r8, lsr #3
40008eb8:	400091a8 	andmi	r9, r0, r8, lsr #3
40008ebc:	4000918c 	andmi	r9, r0, ip, lsl #3
40008ec0:	e51b301c 	ldr	r3, [fp, #-28]
40008ec4:	e2033010 	and	r3, r3, #16
40008ec8:	e3530000 	cmp	r3, #0
40008ecc:	1a00000c 	bne	40008f04 <vsprintf+0x4b8>
40008ed0:	ea000005 	b	40008eec <vsprintf+0x4a0>
40008ed4:	e51b3014 	ldr	r3, [fp, #-20]
40008ed8:	e3a02020 	mov	r2, #32
40008edc:	e5c32000 	strb	r2, [r3]
40008ee0:	e51b3014 	ldr	r3, [fp, #-20]
40008ee4:	e2833001 	add	r3, r3, #1
40008ee8:	e50b3014 	str	r3, [fp, #-20]
40008eec:	e51b3020 	ldr	r3, [fp, #-32]
40008ef0:	e2433001 	sub	r3, r3, #1
40008ef4:	e50b3020 	str	r3, [fp, #-32]
40008ef8:	e51b3020 	ldr	r3, [fp, #-32]
40008efc:	e3530000 	cmp	r3, #0
40008f00:	cafffff3 	bgt	40008ed4 <vsprintf+0x488>
40008f04:	e51b3040 	ldr	r3, [fp, #-64]	; 0x40
40008f08:	e2832004 	add	r2, r3, #4
40008f0c:	e50b2040 	str	r2, [fp, #-64]	; 0x40
40008f10:	e5933000 	ldr	r3, [r3]
40008f14:	e6ef2073 	uxtb	r2, r3
40008f18:	e51b3014 	ldr	r3, [fp, #-20]
40008f1c:	e5c32000 	strb	r2, [r3]
40008f20:	e51b3014 	ldr	r3, [fp, #-20]
40008f24:	e2833001 	add	r3, r3, #1
40008f28:	e50b3014 	str	r3, [fp, #-20]
40008f2c:	ea000005 	b	40008f48 <vsprintf+0x4fc>
40008f30:	e51b3014 	ldr	r3, [fp, #-20]
40008f34:	e3a02020 	mov	r2, #32
40008f38:	e5c32000 	strb	r2, [r3]
40008f3c:	e51b3014 	ldr	r3, [fp, #-20]
40008f40:	e2833001 	add	r3, r3, #1
40008f44:	e50b3014 	str	r3, [fp, #-20]
40008f48:	e51b3020 	ldr	r3, [fp, #-32]
40008f4c:	e2433001 	sub	r3, r3, #1
40008f50:	e50b3020 	str	r3, [fp, #-32]
40008f54:	e51b3020 	ldr	r3, [fp, #-32]
40008f58:	e3530000 	cmp	r3, #0
40008f5c:	cafffff3 	bgt	40008f30 <vsprintf+0x4e4>
40008f60:	ea0000f2 	b	40009330 <vsprintf+0x8e4>
40008f64:	e51b3040 	ldr	r3, [fp, #-64]	; 0x40
40008f68:	e2832004 	add	r2, r3, #4
40008f6c:	e50b2040 	str	r2, [fp, #-64]	; 0x40
40008f70:	e5933000 	ldr	r3, [r3]
40008f74:	e50b3018 	str	r3, [fp, #-24]
40008f78:	e51b3018 	ldr	r3, [fp, #-24]
40008f7c:	e3530000 	cmp	r3, #0
40008f80:	1a000001 	bne	40008f8c <vsprintf+0x540>
40008f84:	e59f33e4 	ldr	r3, [pc, #996]	; 40009370 <vsprintf+0x924>
40008f88:	e50b3018 	str	r3, [fp, #-24]
40008f8c:	e51b3024 	ldr	r3, [fp, #-36]	; 0x24
40008f90:	e51b0018 	ldr	r0, [fp, #-24]
40008f94:	e1a01003 	mov	r1, r3
40008f98:	ebfffe8b 	bl	400089cc <strnlen>
40008f9c:	e1a03000 	mov	r3, r0
40008fa0:	e50b302c 	str	r3, [fp, #-44]	; 0x2c
40008fa4:	e51b301c 	ldr	r3, [fp, #-28]
40008fa8:	e2033010 	and	r3, r3, #16
40008fac:	e3530000 	cmp	r3, #0
40008fb0:	1a000011 	bne	40008ffc <vsprintf+0x5b0>
40008fb4:	ea000005 	b	40008fd0 <vsprintf+0x584>
40008fb8:	e51b3014 	ldr	r3, [fp, #-20]
40008fbc:	e3a02020 	mov	r2, #32
40008fc0:	e5c32000 	strb	r2, [r3]
40008fc4:	e51b3014 	ldr	r3, [fp, #-20]
40008fc8:	e2833001 	add	r3, r3, #1
40008fcc:	e50b3014 	str	r3, [fp, #-20]
40008fd0:	e51b2020 	ldr	r2, [fp, #-32]
40008fd4:	e51b302c 	ldr	r3, [fp, #-44]	; 0x2c
40008fd8:	e1520003 	cmp	r2, r3
40008fdc:	d3a03000 	movle	r3, #0
40008fe0:	c3a03001 	movgt	r3, #1
40008fe4:	e6ef3073 	uxtb	r3, r3
40008fe8:	e51b2020 	ldr	r2, [fp, #-32]
40008fec:	e2422001 	sub	r2, r2, #1
40008ff0:	e50b2020 	str	r2, [fp, #-32]
40008ff4:	e3530000 	cmp	r3, #0
40008ff8:	1affffee 	bne	40008fb8 <vsprintf+0x56c>
40008ffc:	e3a03000 	mov	r3, #0
40009000:	e50b300c 	str	r3, [fp, #-12]
40009004:	ea00000c 	b	4000903c <vsprintf+0x5f0>
40009008:	e51b3018 	ldr	r3, [fp, #-24]
4000900c:	e5d32000 	ldrb	r2, [r3]
40009010:	e51b3014 	ldr	r3, [fp, #-20]
40009014:	e5c32000 	strb	r2, [r3]
40009018:	e51b3014 	ldr	r3, [fp, #-20]
4000901c:	e2833001 	add	r3, r3, #1
40009020:	e50b3014 	str	r3, [fp, #-20]
40009024:	e51b3018 	ldr	r3, [fp, #-24]
40009028:	e2833001 	add	r3, r3, #1
4000902c:	e50b3018 	str	r3, [fp, #-24]
40009030:	e51b300c 	ldr	r3, [fp, #-12]
40009034:	e2833001 	add	r3, r3, #1
40009038:	e50b300c 	str	r3, [fp, #-12]
4000903c:	e51b200c 	ldr	r2, [fp, #-12]
40009040:	e51b302c 	ldr	r3, [fp, #-44]	; 0x2c
40009044:	e1520003 	cmp	r2, r3
40009048:	baffffee 	blt	40009008 <vsprintf+0x5bc>
4000904c:	ea000005 	b	40009068 <vsprintf+0x61c>
40009050:	e51b3014 	ldr	r3, [fp, #-20]
40009054:	e3a02020 	mov	r2, #32
40009058:	e5c32000 	strb	r2, [r3]
4000905c:	e51b3014 	ldr	r3, [fp, #-20]
40009060:	e2833001 	add	r3, r3, #1
40009064:	e50b3014 	str	r3, [fp, #-20]
40009068:	e51b2020 	ldr	r2, [fp, #-32]
4000906c:	e51b302c 	ldr	r3, [fp, #-44]	; 0x2c
40009070:	e1520003 	cmp	r2, r3
40009074:	d3a03000 	movle	r3, #0
40009078:	c3a03001 	movgt	r3, #1
4000907c:	e6ef3073 	uxtb	r3, r3
40009080:	e51b2020 	ldr	r2, [fp, #-32]
40009084:	e2422001 	sub	r2, r2, #1
40009088:	e50b2020 	str	r2, [fp, #-32]
4000908c:	e3530000 	cmp	r3, #0
40009090:	1affffee 	bne	40009050 <vsprintf+0x604>
40009094:	ea0000a5 	b	40009330 <vsprintf+0x8e4>
40009098:	e51b3020 	ldr	r3, [fp, #-32]
4000909c:	e3730001 	cmn	r3, #1
400090a0:	1a000004 	bne	400090b8 <vsprintf+0x66c>
400090a4:	e3a03008 	mov	r3, #8
400090a8:	e50b3020 	str	r3, [fp, #-32]
400090ac:	e51b301c 	ldr	r3, [fp, #-28]
400090b0:	e3833001 	orr	r3, r3, #1
400090b4:	e50b301c 	str	r3, [fp, #-28]
400090b8:	e51b3040 	ldr	r3, [fp, #-64]	; 0x40
400090bc:	e2832004 	add	r2, r3, #4
400090c0:	e50b2040 	str	r2, [fp, #-64]	; 0x40
400090c4:	e5933000 	ldr	r3, [r3]
400090c8:	e51b2024 	ldr	r2, [fp, #-36]	; 0x24
400090cc:	e58d2000 	str	r2, [sp]
400090d0:	e51b201c 	ldr	r2, [fp, #-28]
400090d4:	e58d2004 	str	r2, [sp, #4]
400090d8:	e51b0014 	ldr	r0, [fp, #-20]
400090dc:	e1a01003 	mov	r1, r3
400090e0:	e3a02010 	mov	r2, #16
400090e4:	e51b3020 	ldr	r3, [fp, #-32]
400090e8:	ebfffd12 	bl	40008538 <number>
400090ec:	e50b0014 	str	r0, [fp, #-20]
400090f0:	ea00008e 	b	40009330 <vsprintf+0x8e4>
400090f4:	e51b3028 	ldr	r3, [fp, #-40]	; 0x28
400090f8:	e353006c 	cmp	r3, #108	; 0x6c
400090fc:	1a00000a 	bne	4000912c <vsprintf+0x6e0>
40009100:	e51b3040 	ldr	r3, [fp, #-64]	; 0x40
40009104:	e2832004 	add	r2, r3, #4
40009108:	e50b2040 	str	r2, [fp, #-64]	; 0x40
4000910c:	e5933000 	ldr	r3, [r3]
40009110:	e50b3030 	str	r3, [fp, #-48]	; 0x30
40009114:	e51b2014 	ldr	r2, [fp, #-20]
40009118:	e51b3038 	ldr	r3, [fp, #-56]	; 0x38
4000911c:	e0632002 	rsb	r2, r3, r2
40009120:	e51b3030 	ldr	r3, [fp, #-48]	; 0x30
40009124:	e5832000 	str	r2, [r3]
40009128:	ea000080 	b	40009330 <vsprintf+0x8e4>
4000912c:	e51b3040 	ldr	r3, [fp, #-64]	; 0x40
40009130:	e2832004 	add	r2, r3, #4
40009134:	e50b2040 	str	r2, [fp, #-64]	; 0x40
40009138:	e5933000 	ldr	r3, [r3]
4000913c:	e50b3034 	str	r3, [fp, #-52]	; 0x34
40009140:	e51b2014 	ldr	r2, [fp, #-20]
40009144:	e51b3038 	ldr	r3, [fp, #-56]	; 0x38
40009148:	e0632002 	rsb	r2, r3, r2
4000914c:	e51b3034 	ldr	r3, [fp, #-52]	; 0x34
40009150:	e5832000 	str	r2, [r3]
40009154:	ea000075 	b	40009330 <vsprintf+0x8e4>
40009158:	e51b3014 	ldr	r3, [fp, #-20]
4000915c:	e3a02025 	mov	r2, #37	; 0x25
40009160:	e5c32000 	strb	r2, [r3]
40009164:	e51b3014 	ldr	r3, [fp, #-20]
40009168:	e2833001 	add	r3, r3, #1
4000916c:	e50b3014 	str	r3, [fp, #-20]
40009170:	ea00006e 	b	40009330 <vsprintf+0x8e4>
40009174:	e3a03008 	mov	r3, #8
40009178:	e50b3010 	str	r3, [fp, #-16]
4000917c:	ea000020 	b	40009204 <vsprintf+0x7b8>
40009180:	e51b301c 	ldr	r3, [fp, #-28]
40009184:	e3833040 	orr	r3, r3, #64	; 0x40
40009188:	e50b301c 	str	r3, [fp, #-28]
4000918c:	e3a03010 	mov	r3, #16
40009190:	e50b3010 	str	r3, [fp, #-16]
40009194:	ea00001a 	b	40009204 <vsprintf+0x7b8>
40009198:	e51b301c 	ldr	r3, [fp, #-28]
4000919c:	e3833002 	orr	r3, r3, #2
400091a0:	e50b301c 	str	r3, [fp, #-28]
400091a4:	ea000015 	b	40009200 <vsprintf+0x7b4>
400091a8:	e51b3014 	ldr	r3, [fp, #-20]
400091ac:	e3a02025 	mov	r2, #37	; 0x25
400091b0:	e5c32000 	strb	r2, [r3]
400091b4:	e51b3014 	ldr	r3, [fp, #-20]
400091b8:	e2833001 	add	r3, r3, #1
400091bc:	e50b3014 	str	r3, [fp, #-20]
400091c0:	e51b303c 	ldr	r3, [fp, #-60]	; 0x3c
400091c4:	e5d33000 	ldrb	r3, [r3]
400091c8:	e3530000 	cmp	r3, #0
400091cc:	0a000007 	beq	400091f0 <vsprintf+0x7a4>
400091d0:	e51b303c 	ldr	r3, [fp, #-60]	; 0x3c
400091d4:	e5d32000 	ldrb	r2, [r3]
400091d8:	e51b3014 	ldr	r3, [fp, #-20]
400091dc:	e5c32000 	strb	r2, [r3]
400091e0:	e51b3014 	ldr	r3, [fp, #-20]
400091e4:	e2833001 	add	r3, r3, #1
400091e8:	e50b3014 	str	r3, [fp, #-20]
400091ec:	ea00004f 	b	40009330 <vsprintf+0x8e4>
400091f0:	e51b303c 	ldr	r3, [fp, #-60]	; 0x3c
400091f4:	e2433001 	sub	r3, r3, #1
400091f8:	e50b303c 	str	r3, [fp, #-60]	; 0x3c
400091fc:	ea00004b 	b	40009330 <vsprintf+0x8e4>
40009200:	e1a00000 	nop			; (mov r0, r0)
40009204:	e51b3028 	ldr	r3, [fp, #-40]	; 0x28
40009208:	e353006c 	cmp	r3, #108	; 0x6c
4000920c:	1a000005 	bne	40009228 <vsprintf+0x7dc>
40009210:	e51b3040 	ldr	r3, [fp, #-64]	; 0x40
40009214:	e2832004 	add	r2, r3, #4
40009218:	e50b2040 	str	r2, [fp, #-64]	; 0x40
4000921c:	e5933000 	ldr	r3, [r3]
40009220:	e50b3008 	str	r3, [fp, #-8]
40009224:	ea000035 	b	40009300 <vsprintf+0x8b4>
40009228:	e51b3028 	ldr	r3, [fp, #-40]	; 0x28
4000922c:	e353005a 	cmp	r3, #90	; 0x5a
40009230:	0a000002 	beq	40009240 <vsprintf+0x7f4>
40009234:	e51b3028 	ldr	r3, [fp, #-40]	; 0x28
40009238:	e353007a 	cmp	r3, #122	; 0x7a
4000923c:	1a000005 	bne	40009258 <vsprintf+0x80c>
40009240:	e51b3040 	ldr	r3, [fp, #-64]	; 0x40
40009244:	e2832004 	add	r2, r3, #4
40009248:	e50b2040 	str	r2, [fp, #-64]	; 0x40
4000924c:	e5933000 	ldr	r3, [r3]
40009250:	e50b3008 	str	r3, [fp, #-8]
40009254:	ea000029 	b	40009300 <vsprintf+0x8b4>
40009258:	e51b3028 	ldr	r3, [fp, #-40]	; 0x28
4000925c:	e3530074 	cmp	r3, #116	; 0x74
40009260:	1a000005 	bne	4000927c <vsprintf+0x830>
40009264:	e51b3040 	ldr	r3, [fp, #-64]	; 0x40
40009268:	e2832004 	add	r2, r3, #4
4000926c:	e50b2040 	str	r2, [fp, #-64]	; 0x40
40009270:	e5933000 	ldr	r3, [r3]
40009274:	e50b3008 	str	r3, [fp, #-8]
40009278:	ea000020 	b	40009300 <vsprintf+0x8b4>
4000927c:	e51b3028 	ldr	r3, [fp, #-40]	; 0x28
40009280:	e3530068 	cmp	r3, #104	; 0x68
40009284:	1a00000e 	bne	400092c4 <vsprintf+0x878>
40009288:	e51b3040 	ldr	r3, [fp, #-64]	; 0x40
4000928c:	e2832004 	add	r2, r3, #4
40009290:	e50b2040 	str	r2, [fp, #-64]	; 0x40
40009294:	e5933000 	ldr	r3, [r3]
40009298:	e6ff3073 	uxth	r3, r3
4000929c:	e50b3008 	str	r3, [fp, #-8]
400092a0:	e51b301c 	ldr	r3, [fp, #-28]
400092a4:	e2033002 	and	r3, r3, #2
400092a8:	e3530000 	cmp	r3, #0
400092ac:	0a000013 	beq	40009300 <vsprintf+0x8b4>
400092b0:	e51b3008 	ldr	r3, [fp, #-8]
400092b4:	e6ff3073 	uxth	r3, r3
400092b8:	e6bf3073 	sxth	r3, r3
400092bc:	e50b3008 	str	r3, [fp, #-8]
400092c0:	ea00000e 	b	40009300 <vsprintf+0x8b4>
400092c4:	e51b301c 	ldr	r3, [fp, #-28]
400092c8:	e2033002 	and	r3, r3, #2
400092cc:	e3530000 	cmp	r3, #0
400092d0:	0a000005 	beq	400092ec <vsprintf+0x8a0>
400092d4:	e51b3040 	ldr	r3, [fp, #-64]	; 0x40
400092d8:	e2832004 	add	r2, r3, #4
400092dc:	e50b2040 	str	r2, [fp, #-64]	; 0x40
400092e0:	e5933000 	ldr	r3, [r3]
400092e4:	e50b3008 	str	r3, [fp, #-8]
400092e8:	ea000004 	b	40009300 <vsprintf+0x8b4>
400092ec:	e51b3040 	ldr	r3, [fp, #-64]	; 0x40
400092f0:	e2832004 	add	r2, r3, #4
400092f4:	e50b2040 	str	r2, [fp, #-64]	; 0x40
400092f8:	e5933000 	ldr	r3, [r3]
400092fc:	e50b3008 	str	r3, [fp, #-8]
40009300:	e51b2008 	ldr	r2, [fp, #-8]
40009304:	e51b3010 	ldr	r3, [fp, #-16]
40009308:	e51b1024 	ldr	r1, [fp, #-36]	; 0x24
4000930c:	e58d1000 	str	r1, [sp]
40009310:	e51b101c 	ldr	r1, [fp, #-28]
40009314:	e58d1004 	str	r1, [sp, #4]
40009318:	e51b0014 	ldr	r0, [fp, #-20]
4000931c:	e1a01002 	mov	r1, r2
40009320:	e1a02003 	mov	r2, r3
40009324:	e51b3020 	ldr	r3, [fp, #-32]
40009328:	ebfffc82 	bl	40008538 <number>
4000932c:	e50b0014 	str	r0, [fp, #-20]
40009330:	e51b303c 	ldr	r3, [fp, #-60]	; 0x3c
40009334:	e2833001 	add	r3, r3, #1
40009338:	e50b303c 	str	r3, [fp, #-60]	; 0x3c
4000933c:	e51b303c 	ldr	r3, [fp, #-60]	; 0x3c
40009340:	e5d33000 	ldrb	r3, [r3]
40009344:	e3530000 	cmp	r3, #0
40009348:	1afffdc8 	bne	40008a70 <vsprintf+0x24>
4000934c:	e51b3014 	ldr	r3, [fp, #-20]
40009350:	e3a02000 	mov	r2, #0
40009354:	e5c32000 	strb	r2, [r3]
40009358:	e51b2014 	ldr	r2, [fp, #-20]
4000935c:	e51b3038 	ldr	r3, [fp, #-56]	; 0x38
40009360:	e0633002 	rsb	r3, r3, r2
40009364:	e1a00003 	mov	r0, r3
40009368:	e24bd004 	sub	sp, fp, #4
4000936c:	e8bd8800 	pop	{fp, pc}
40009370:	40009988 	andmi	r9, r0, r8, lsl #19

40009374 <sprintf>:
40009374:	e92d000e 	push	{r1, r2, r3}
40009378:	e92d4800 	push	{fp, lr}
4000937c:	e28db004 	add	fp, sp, #4
40009380:	e24dd00c 	sub	sp, sp, #12
40009384:	e50b0010 	str	r0, [fp, #-16]
40009388:	e28b2008 	add	r2, fp, #8
4000938c:	e24b300c 	sub	r3, fp, #12
40009390:	e5832000 	str	r2, [r3]
40009394:	e51b300c 	ldr	r3, [fp, #-12]
40009398:	e51b0010 	ldr	r0, [fp, #-16]
4000939c:	e59b1004 	ldr	r1, [fp, #4]
400093a0:	e1a02003 	mov	r2, r3
400093a4:	ebfffda8 	bl	40008a4c <vsprintf>
400093a8:	e50b0008 	str	r0, [fp, #-8]
400093ac:	e51b3008 	ldr	r3, [fp, #-8]
400093b0:	e1a00003 	mov	r0, r3
400093b4:	e24bd004 	sub	sp, fp, #4
400093b8:	e8bd4800 	pop	{fp, lr}
400093bc:	e28dd00c 	add	sp, sp, #12
400093c0:	e12fff1e 	bx	lr

400093c4 <printf>:
400093c4:	e92d000f 	push	{r0, r1, r2, r3}
400093c8:	e92d4800 	push	{fp, lr}
400093cc:	e28db004 	add	fp, sp, #4
400093d0:	e24dd06c 	sub	sp, sp, #108	; 0x6c
400093d4:	e28b2008 	add	r2, fp, #8
400093d8:	e24b300c 	sub	r3, fp, #12
400093dc:	e5832000 	str	r2, [r3]
400093e0:	e51b300c 	ldr	r3, [fp, #-12]
400093e4:	e24b2070 	sub	r2, fp, #112	; 0x70
400093e8:	e1a00002 	mov	r0, r2
400093ec:	e59b1004 	ldr	r1, [fp, #4]
400093f0:	e1a02003 	mov	r2, r3
400093f4:	ebfffd94 	bl	40008a4c <vsprintf>
400093f8:	e1a03000 	mov	r3, r0
400093fc:	e50b3008 	str	r3, [fp, #-8]
40009400:	e24b3070 	sub	r3, fp, #112	; 0x70
40009404:	e1a00003 	mov	r0, r3
40009408:	eb000032 	bl	400094d8 <puts>
4000940c:	e24bd004 	sub	sp, fp, #4
40009410:	e8bd4800 	pop	{fp, lr}
40009414:	e28dd010 	add	sp, sp, #16
40009418:	e12fff1e 	bx	lr

4000941c <uart_init>:
4000941c:	e52db004 	push	{fp}		; (str fp, [sp, #-4]!)
40009420:	e28db000 	add	fp, sp, #0
40009424:	e59f304c 	ldr	r3, [pc, #76]	; 40009478 <uart_init+0x5c>
40009428:	e59f2048 	ldr	r2, [pc, #72]	; 40009478 <uart_init+0x5c>
4000942c:	e5922000 	ldr	r2, [r2]
40009430:	e3c220ff 	bic	r2, r2, #255	; 0xff
40009434:	e3822022 	orr	r2, r2, #34	; 0x22
40009438:	e5832000 	str	r2, [r3]
4000943c:	e59f3038 	ldr	r3, [pc, #56]	; 4000947c <uart_init+0x60>
40009440:	e3a02003 	mov	r2, #3
40009444:	e5832000 	str	r2, [r3]
40009448:	e59f302c 	ldr	r3, [pc, #44]	; 4000947c <uart_init+0x60>
4000944c:	e3a02005 	mov	r2, #5
40009450:	e5832004 	str	r2, [r3, #4]
40009454:	e59f3020 	ldr	r3, [pc, #32]	; 4000947c <uart_init+0x60>
40009458:	e3a02035 	mov	r2, #53	; 0x35
4000945c:	e5832028 	str	r2, [r3, #40]	; 0x28
40009460:	e59f3014 	ldr	r3, [pc, #20]	; 4000947c <uart_init+0x60>
40009464:	e3a02005 	mov	r2, #5
40009468:	e583202c 	str	r2, [r3, #44]	; 0x2c
4000946c:	e28bd000 	add	sp, fp, #0
40009470:	e8bd0800 	ldmfd	sp!, {fp}
40009474:	e12fff1e 	bx	lr
40009478:	11400020 	cmpne	r0, r0, lsr #32
4000947c:	13820000 	orrne	r0, r2, #0

40009480 <putc>:
40009480:	e92d4800 	push	{fp, lr}
40009484:	e28db004 	add	fp, sp, #4
40009488:	e24dd004 	sub	sp, sp, #4
4000948c:	e1a03000 	mov	r3, r0
40009490:	e54b3008 	strb	r3, [fp, #-8]
40009494:	e1a00000 	nop			; (mov r0, r0)
40009498:	e59f3034 	ldr	r3, [pc, #52]	; 400094d4 <putc+0x54>
4000949c:	e5933010 	ldr	r3, [r3, #16]
400094a0:	e2033002 	and	r3, r3, #2
400094a4:	e3530000 	cmp	r3, #0
400094a8:	0afffffa 	beq	40009498 <putc+0x18>
400094ac:	e59f3020 	ldr	r3, [pc, #32]	; 400094d4 <putc+0x54>
400094b0:	e55b2008 	ldrb	r2, [fp, #-8]
400094b4:	e5832020 	str	r2, [r3, #32]
400094b8:	e55b3008 	ldrb	r3, [fp, #-8]
400094bc:	e353000a 	cmp	r3, #10
400094c0:	1a000001 	bne	400094cc <putc+0x4c>
400094c4:	e3a0000d 	mov	r0, #13
400094c8:	ebffffec 	bl	40009480 <putc>
400094cc:	e24bd004 	sub	sp, fp, #4
400094d0:	e8bd8800 	pop	{fp, pc}
400094d4:	13820000 	orrne	r0, r2, #0

400094d8 <puts>:
400094d8:	e92d4800 	push	{fp, lr}
400094dc:	e28db004 	add	fp, sp, #4
400094e0:	e24dd004 	sub	sp, sp, #4
400094e4:	e50b0008 	str	r0, [fp, #-8]
400094e8:	ea000006 	b	40009508 <puts+0x30>
400094ec:	e51b3008 	ldr	r3, [fp, #-8]
400094f0:	e5d33000 	ldrb	r3, [r3]
400094f4:	e51b2008 	ldr	r2, [fp, #-8]
400094f8:	e2822001 	add	r2, r2, #1
400094fc:	e50b2008 	str	r2, [fp, #-8]
40009500:	e1a00003 	mov	r0, r3
40009504:	ebffffdd 	bl	40009480 <putc>
40009508:	e51b3008 	ldr	r3, [fp, #-8]
4000950c:	e5d33000 	ldrb	r3, [r3]
40009510:	e3530000 	cmp	r3, #0
40009514:	1afffff4 	bne	400094ec <puts+0x14>
40009518:	e24bd004 	sub	sp, fp, #4
4000951c:	e8bd8800 	pop	{fp, pc}

40009520 <do_irq>:
40009520:	e92d4800 	push	{fp, lr}
40009524:	e28db004 	add	fp, sp, #4
40009528:	e24dd004 	sub	sp, sp, #4
4000952c:	e59f30d4 	ldr	r3, [pc, #212]	; 40009608 <do_irq+0xe8>
40009530:	e593300c 	ldr	r3, [r3, #12]
40009534:	e1a03b03 	lsl	r3, r3, #22
40009538:	e1a03b23 	lsr	r3, r3, #22
4000953c:	e50b3008 	str	r3, [fp, #-8]
40009540:	e51b3008 	ldr	r3, [fp, #-8]
40009544:	e353003a 	cmp	r3, #58	; 0x3a
40009548:	0a000023 	beq	400095dc <do_irq+0xbc>
4000954c:	e3530045 	cmp	r3, #69	; 0x45
40009550:	0a000013 	beq	400095a4 <do_irq+0x84>
40009554:	e3530039 	cmp	r3, #57	; 0x39
40009558:	1a00001e 	bne	400095d8 <do_irq+0xb8>
4000955c:	e59f30a8 	ldr	r3, [pc, #168]	; 4000960c <do_irq+0xec>
40009560:	e59f20a4 	ldr	r2, [pc, #164]	; 4000960c <do_irq+0xec>
40009564:	e5922004 	ldr	r2, [r2, #4]
40009568:	e2222001 	eor	r2, r2, #1
4000956c:	e5832004 	str	r2, [r3, #4]
40009570:	e59f0098 	ldr	r0, [pc, #152]	; 40009610 <do_irq+0xf0>
40009574:	ebffff92 	bl	400093c4 <printf>
40009578:	e59f3094 	ldr	r3, [pc, #148]	; 40009614 <do_irq+0xf4>
4000957c:	e59f2090 	ldr	r2, [pc, #144]	; 40009614 <do_irq+0xf4>
40009580:	e5922000 	ldr	r2, [r2]
40009584:	e3822002 	orr	r2, r2, #2
40009588:	e5832000 	str	r2, [r3]
4000958c:	e59f3084 	ldr	r3, [pc, #132]	; 40009618 <do_irq+0xf8>
40009590:	e59f2080 	ldr	r2, [pc, #128]	; 40009618 <do_irq+0xf8>
40009594:	e5922004 	ldr	r2, [r2, #4]
40009598:	e3822402 	orr	r2, r2, #33554432	; 0x2000000
4000959c:	e5832004 	str	r2, [r3, #4]
400095a0:	ea00000e 	b	400095e0 <do_irq+0xc0>
400095a4:	e59f0070 	ldr	r0, [pc, #112]	; 4000961c <do_irq+0xfc>
400095a8:	ebffff85 	bl	400093c4 <printf>
400095ac:	e59f306c 	ldr	r3, [pc, #108]	; 40009620 <do_irq+0x100>
400095b0:	e59f2068 	ldr	r2, [pc, #104]	; 40009620 <do_irq+0x100>
400095b4:	e5922044 	ldr	r2, [r2, #68]	; 0x44
400095b8:	e3822020 	orr	r2, r2, #32
400095bc:	e5832044 	str	r2, [r3, #68]	; 0x44
400095c0:	e59f3050 	ldr	r3, [pc, #80]	; 40009618 <do_irq+0xf8>
400095c4:	e59f204c 	ldr	r2, [pc, #76]	; 40009618 <do_irq+0xf8>
400095c8:	e5922008 	ldr	r2, [r2, #8]
400095cc:	e3822020 	orr	r2, r2, #32
400095d0:	e5832008 	str	r2, [r3, #8]
400095d4:	ea000001 	b	400095e0 <do_irq+0xc0>
400095d8:	ea000000 	b	400095e0 <do_irq+0xc0>
400095dc:	e1a00000 	nop			; (mov r0, r0)
400095e0:	e59f2020 	ldr	r2, [pc, #32]	; 40009608 <do_irq+0xe8>
400095e4:	e59f301c 	ldr	r3, [pc, #28]	; 40009608 <do_irq+0xe8>
400095e8:	e5933010 	ldr	r3, [r3, #16]
400095ec:	e3c33fff 	bic	r3, r3, #1020	; 0x3fc
400095f0:	e3c33003 	bic	r3, r3, #3
400095f4:	e51b1008 	ldr	r1, [fp, #-8]
400095f8:	e1833001 	orr	r3, r3, r1
400095fc:	e5823010 	str	r3, [r2, #16]
40009600:	e24bd004 	sub	sp, fp, #4
40009604:	e8bd8800 	pop	{fp, pc}
40009608:	10480000 	subne	r0, r8, r0
4000960c:	11000c20 	tstne	r0, r0, lsr #24
40009610:	40009990 	mulmi	r0, r0, r9
40009614:	11000f44 	tstne	r0, r4, asr #30
40009618:	10490280 	subne	r0, r9, r0, lsl #5
4000961c:	40009998 	mulmi	r0, r8, r9
40009620:	139d0000 	orrsne	r0, sp, #0

40009624 <key_gpio_init>:
40009624:	e52db004 	push	{fp}		; (str fp, [sp, #-4]!)
40009628:	e28db000 	add	fp, sp, #0
4000962c:	e59f3044 	ldr	r3, [pc, #68]	; 40009678 <key_gpio_init+0x54>
40009630:	e59f2040 	ldr	r2, [pc, #64]	; 40009678 <key_gpio_init+0x54>
40009634:	e5922000 	ldr	r2, [r2]
40009638:	e38220f0 	orr	r2, r2, #240	; 0xf0
4000963c:	e5832000 	str	r2, [r3]
40009640:	e59f3034 	ldr	r3, [pc, #52]	; 4000967c <key_gpio_init+0x58>
40009644:	e59f2030 	ldr	r2, [pc, #48]	; 4000967c <key_gpio_init+0x58>
40009648:	e5922000 	ldr	r2, [r2]
4000964c:	e3c22070 	bic	r2, r2, #112	; 0x70
40009650:	e3822020 	orr	r2, r2, #32
40009654:	e5832000 	str	r2, [r3]
40009658:	e59f3020 	ldr	r3, [pc, #32]	; 40009680 <key_gpio_init+0x5c>
4000965c:	e59f201c 	ldr	r2, [pc, #28]	; 40009680 <key_gpio_init+0x5c>
40009660:	e5922000 	ldr	r2, [r2]
40009664:	e3c22002 	bic	r2, r2, #2
40009668:	e5832000 	str	r2, [r3]
4000966c:	e28bd000 	add	sp, fp, #0
40009670:	e8bd0800 	ldmfd	sp!, {fp}
40009674:	e12fff1e 	bx	lr
40009678:	11000c20 	tstne	r0, r0, lsr #24
4000967c:	11000e04 	tstne	r0, r4, lsl #28
40009680:	11000f04 	tstne	r0, r4, lsl #30

40009684 <key_gic_init>:
40009684:	e52db004 	push	{fp}		; (str fp, [sp, #-4]!)
40009688:	e28db000 	add	fp, sp, #0
4000968c:	e59f307c 	ldr	r3, [pc, #124]	; 40009710 <key_gic_init+0x8c>
40009690:	e59f2078 	ldr	r2, [pc, #120]	; 40009710 <key_gic_init+0x8c>
40009694:	e5922004 	ldr	r2, [r2, #4]
40009698:	e3822402 	orr	r2, r2, #33554432	; 0x2000000
4000969c:	e5832004 	str	r2, [r3, #4]
400096a0:	e59f306c 	ldr	r3, [pc, #108]	; 40009714 <key_gic_init+0x90>
400096a4:	e59f2068 	ldr	r2, [pc, #104]	; 40009714 <key_gic_init+0x90>
400096a8:	e5922038 	ldr	r2, [r2, #56]	; 0x38
400096ac:	e3c22cff 	bic	r2, r2, #65280	; 0xff00
400096b0:	e3822c39 	orr	r2, r2, #14592	; 0x3900
400096b4:	e5832038 	str	r2, [r3, #56]	; 0x38
400096b8:	e59f3058 	ldr	r3, [pc, #88]	; 40009718 <key_gic_init+0x94>
400096bc:	e59f2054 	ldr	r2, [pc, #84]	; 40009718 <key_gic_init+0x94>
400096c0:	e5922038 	ldr	r2, [r2, #56]	; 0x38
400096c4:	e3c22cff 	bic	r2, r2, #65280	; 0xff00
400096c8:	e3822c01 	orr	r2, r2, #256	; 0x100
400096cc:	e5832038 	str	r2, [r3, #56]	; 0x38
400096d0:	e59f3044 	ldr	r3, [pc, #68]	; 4000971c <key_gic_init+0x98>
400096d4:	e59f2040 	ldr	r2, [pc, #64]	; 4000971c <key_gic_init+0x98>
400096d8:	e5922000 	ldr	r2, [r2]
400096dc:	e3822001 	orr	r2, r2, #1
400096e0:	e5832000 	str	r2, [r3]
400096e4:	e59f3034 	ldr	r3, [pc, #52]	; 40009720 <key_gic_init+0x9c>
400096e8:	e59f2030 	ldr	r2, [pc, #48]	; 40009720 <key_gic_init+0x9c>
400096ec:	e5922000 	ldr	r2, [r2]
400096f0:	e3822001 	orr	r2, r2, #1
400096f4:	e5832000 	str	r2, [r3]
400096f8:	e59f3020 	ldr	r3, [pc, #32]	; 40009720 <key_gic_init+0x9c>
400096fc:	e3a02064 	mov	r2, #100	; 0x64
40009700:	e5832004 	str	r2, [r3, #4]
40009704:	e28bd000 	add	sp, fp, #0
40009708:	e8bd0800 	ldmfd	sp!, {fp}
4000970c:	e12fff1e 	bx	lr
40009710:	10490100 	subne	r0, r9, r0, lsl #2
40009714:	10490400 	subne	r0, r9, r0, lsl #8
40009718:	10490800 	subne	r0, r9, r0, lsl #16
4000971c:	10490000 	subne	r0, r9, r0
40009720:	10480000 	subne	r0, r8, r0

40009724 <delay_ms>:
40009724:	e52db004 	push	{fp}		; (str fp, [sp, #-4]!)
40009728:	e28db000 	add	fp, sp, #0
4000972c:	e24dd00c 	sub	sp, sp, #12
40009730:	e50b000c 	str	r0, [fp, #-12]
40009734:	e3a03000 	mov	r3, #0
40009738:	e50b3004 	str	r3, [fp, #-4]
4000973c:	e3a03000 	mov	r3, #0
40009740:	e50b3008 	str	r3, [fp, #-8]
40009744:	e3a03000 	mov	r3, #0
40009748:	e50b3004 	str	r3, [fp, #-4]
4000974c:	ea00000c 	b	40009784 <delay_ms+0x60>
40009750:	e3a03000 	mov	r3, #0
40009754:	e50b3008 	str	r3, [fp, #-8]
40009758:	ea000002 	b	40009768 <delay_ms+0x44>
4000975c:	e51b3008 	ldr	r3, [fp, #-8]
40009760:	e2833001 	add	r3, r3, #1
40009764:	e50b3008 	str	r3, [fp, #-8]
40009768:	e51b2008 	ldr	r2, [fp, #-8]
4000976c:	e59f302c 	ldr	r3, [pc, #44]	; 400097a0 <delay_ms+0x7c>
40009770:	e1520003 	cmp	r2, r3
40009774:	dafffff8 	ble	4000975c <delay_ms+0x38>
40009778:	e51b3004 	ldr	r3, [fp, #-4]
4000977c:	e2833001 	add	r3, r3, #1
40009780:	e50b3004 	str	r3, [fp, #-4]
40009784:	e51b2004 	ldr	r2, [fp, #-4]
40009788:	e51b300c 	ldr	r3, [fp, #-12]
4000978c:	e1520003 	cmp	r2, r3
40009790:	3affffee 	bcc	40009750 <delay_ms+0x2c>
40009794:	e28bd000 	add	sp, fp, #0
40009798:	e8bd0800 	ldmfd	sp!, {fp}
4000979c:	e12fff1e 	bx	lr
400097a0:	00000897 	muleq	r0, r7, r8

400097a4 <main>:
400097a4:	e92d4800 	push	{fp, lr}
400097a8:	e28db004 	add	fp, sp, #4
400097ac:	ebffff9c 	bl	40009624 <key_gpio_init>
400097b0:	ebffffb3 	bl	40009684 <key_gic_init>
400097b4:	e59f301c 	ldr	r3, [pc, #28]	; 400097d8 <main+0x34>
400097b8:	e59f2018 	ldr	r2, [pc, #24]	; 400097d8 <main+0x34>
400097bc:	e5922000 	ldr	r2, [r2]
400097c0:	e3c2200f 	bic	r2, r2, #15
400097c4:	e3822001 	orr	r2, r2, #1
400097c8:	e5832000 	str	r2, [r3]
400097cc:	eb000002 	bl	400097dc <timer_init>
400097d0:	eb000030 	bl	40009898 <timer_gic_init>
400097d4:	eafffffe 	b	400097d4 <main+0x30>
400097d8:	11000c20 	tstne	r0, r0, lsr #24

400097dc <timer_init>:
400097dc:	e52db004 	push	{fp}		; (str fp, [sp, #-4]!)
400097e0:	e28db000 	add	fp, sp, #0
400097e4:	e59f30a4 	ldr	r3, [pc, #164]	; 40009890 <timer_init+0xb4>
400097e8:	e59f20a0 	ldr	r2, [pc, #160]	; 40009890 <timer_init+0xb4>
400097ec:	e5922000 	ldr	r2, [r2]
400097f0:	e3c220ff 	bic	r2, r2, #255	; 0xff
400097f4:	e38220f9 	orr	r2, r2, #249	; 0xf9
400097f8:	e5832000 	str	r2, [r3]
400097fc:	e59f308c 	ldr	r3, [pc, #140]	; 40009890 <timer_init+0xb4>
40009800:	e59f2088 	ldr	r2, [pc, #136]	; 40009890 <timer_init+0xb4>
40009804:	e5922004 	ldr	r2, [r2, #4]
40009808:	e3c2200f 	bic	r2, r2, #15
4000980c:	e3822002 	orr	r2, r2, #2
40009810:	e5832004 	str	r2, [r3, #4]
40009814:	e59f3074 	ldr	r3, [pc, #116]	; 40009890 <timer_init+0xb4>
40009818:	e59f2074 	ldr	r2, [pc, #116]	; 40009894 <timer_init+0xb8>
4000981c:	e583200c 	str	r2, [r3, #12]
40009820:	e59f3068 	ldr	r3, [pc, #104]	; 40009890 <timer_init+0xb4>
40009824:	e59f2064 	ldr	r2, [pc, #100]	; 40009890 <timer_init+0xb4>
40009828:	e5922008 	ldr	r2, [r2, #8]
4000982c:	e3822002 	orr	r2, r2, #2
40009830:	e5832008 	str	r2, [r3, #8]
40009834:	e59f3054 	ldr	r3, [pc, #84]	; 40009890 <timer_init+0xb4>
40009838:	e59f2050 	ldr	r2, [pc, #80]	; 40009890 <timer_init+0xb4>
4000983c:	e5922008 	ldr	r2, [r2, #8]
40009840:	e3822008 	orr	r2, r2, #8
40009844:	e5832008 	str	r2, [r3, #8]
40009848:	e59f3040 	ldr	r3, [pc, #64]	; 40009890 <timer_init+0xb4>
4000984c:	e59f203c 	ldr	r2, [pc, #60]	; 40009890 <timer_init+0xb4>
40009850:	e5922008 	ldr	r2, [r2, #8]
40009854:	e3c22002 	bic	r2, r2, #2
40009858:	e5832008 	str	r2, [r3, #8]
4000985c:	e59f302c 	ldr	r3, [pc, #44]	; 40009890 <timer_init+0xb4>
40009860:	e59f2028 	ldr	r2, [pc, #40]	; 40009890 <timer_init+0xb4>
40009864:	e5922008 	ldr	r2, [r2, #8]
40009868:	e3822001 	orr	r2, r2, #1
4000986c:	e5832008 	str	r2, [r3, #8]
40009870:	e59f3018 	ldr	r3, [pc, #24]	; 40009890 <timer_init+0xb4>
40009874:	e59f2014 	ldr	r2, [pc, #20]	; 40009890 <timer_init+0xb4>
40009878:	e5922044 	ldr	r2, [r2, #68]	; 0x44
4000987c:	e3822001 	orr	r2, r2, #1
40009880:	e5832044 	str	r2, [r3, #68]	; 0x44
40009884:	e28bd000 	add	sp, fp, #0
40009888:	e8bd0800 	ldmfd	sp!, {fp}
4000988c:	e12fff1e 	bx	lr
40009890:	139d0000 	orrsne	r0, sp, #0
40009894:	0001869f 	muleq	r1, pc, r6	; <UNPREDICTABLE>

40009898 <timer_gic_init>:
40009898:	e52db004 	push	{fp}		; (str fp, [sp, #-4]!)
4000989c:	e28db000 	add	fp, sp, #0
400098a0:	e59f307c 	ldr	r3, [pc, #124]	; 40009924 <timer_gic_init+0x8c>
400098a4:	e59f2078 	ldr	r2, [pc, #120]	; 40009924 <timer_gic_init+0x8c>
400098a8:	e5922008 	ldr	r2, [r2, #8]
400098ac:	e3822020 	orr	r2, r2, #32
400098b0:	e5832008 	str	r2, [r3, #8]
400098b4:	e59f306c 	ldr	r3, [pc, #108]	; 40009928 <timer_gic_init+0x90>
400098b8:	e59f2068 	ldr	r2, [pc, #104]	; 40009928 <timer_gic_init+0x90>
400098bc:	e5922044 	ldr	r2, [r2, #68]	; 0x44
400098c0:	e3c22cff 	bic	r2, r2, #65280	; 0xff00
400098c4:	e3822c45 	orr	r2, r2, #17664	; 0x4500
400098c8:	e5832044 	str	r2, [r3, #68]	; 0x44
400098cc:	e59f3058 	ldr	r3, [pc, #88]	; 4000992c <timer_gic_init+0x94>
400098d0:	e59f2054 	ldr	r2, [pc, #84]	; 4000992c <timer_gic_init+0x94>
400098d4:	e5922044 	ldr	r2, [r2, #68]	; 0x44
400098d8:	e3c22cff 	bic	r2, r2, #65280	; 0xff00
400098dc:	e3822c01 	orr	r2, r2, #256	; 0x100
400098e0:	e5832044 	str	r2, [r3, #68]	; 0x44
400098e4:	e59f3044 	ldr	r3, [pc, #68]	; 40009930 <timer_gic_init+0x98>
400098e8:	e59f2040 	ldr	r2, [pc, #64]	; 40009930 <timer_gic_init+0x98>
400098ec:	e5922000 	ldr	r2, [r2]
400098f0:	e3822001 	orr	r2, r2, #1
400098f4:	e5832000 	str	r2, [r3]
400098f8:	e59f3034 	ldr	r3, [pc, #52]	; 40009934 <timer_gic_init+0x9c>
400098fc:	e59f2030 	ldr	r2, [pc, #48]	; 40009934 <timer_gic_init+0x9c>
40009900:	e5922000 	ldr	r2, [r2]
40009904:	e3822001 	orr	r2, r2, #1
40009908:	e5832000 	str	r2, [r3]
4000990c:	e59f3020 	ldr	r3, [pc, #32]	; 40009934 <timer_gic_init+0x9c>
40009910:	e3a02064 	mov	r2, #100	; 0x64
40009914:	e5832004 	str	r2, [r3, #4]
40009918:	e28bd000 	add	sp, fp, #0
4000991c:	e8bd0800 	ldmfd	sp!, {fp}
40009920:	e12fff1e 	bx	lr
40009924:	10490100 	subne	r0, r9, r0, lsl #2
40009928:	10490400 	subne	r0, r9, r0, lsl #8
4000992c:	10490800 	subne	r0, r9, r0, lsl #16
40009930:	10490000 	subne	r0, r9, r0
40009934:	10480000 	subne	r0, r8, r0

Disassembly of section .rodata:

40009938 <.rodata>:
40009938:	33323130 	teqcc	r2, #48, 2
4000993c:	37363534 			; <UNDEFINED> instruction: 0x37363534
40009940:	62613938 	rsbvs	r3, r1, #56, 18	; 0xe0000
40009944:	66656463 	strbtvs	r6, [r5], -r3, ror #8
40009948:	6a696867 	bvs	41a63aec <_ctype+0x1a59740>
4000994c:	6e6d6c6b 	cdpvs	12, 6, cr6, cr13, cr11, {3}
40009950:	7271706f 	rsbsvc	r7, r1, #111	; 0x6f
40009954:	76757473 			; <UNDEFINED> instruction: 0x76757473
40009958:	7a797877 	bvc	41e67b3c <_ctype+0x1e5d790>
4000995c:	00000000 	andeq	r0, r0, r0
40009960:	33323130 	teqcc	r2, #48, 2
40009964:	37363534 			; <UNDEFINED> instruction: 0x37363534
40009968:	42413938 	submi	r3, r1, #56, 18	; 0xe0000
4000996c:	46454443 	strbmi	r4, [r5], -r3, asr #8
40009970:	4a494847 	bmi	4125ba94 <_ctype+0x12516e8>
40009974:	4e4d4c4b 	cdpmi	12, 4, cr4, cr13, cr11, {2}
40009978:	5251504f 	subspl	r5, r1, #79	; 0x4f
4000997c:	56555453 			; <UNDEFINED> instruction: 0x56555453
40009980:	5a595857 	bpl	4165fae4 <_ctype+0x1655738>
40009984:	00000000 	andeq	r0, r0, r0
40009988:	4c554e3c 	mrrcmi	14, 3, r4, r5, cr12
4000998c:	00003e4c 	andeq	r3, r0, ip, asr #28
40009990:	6b20326b 	blvs	40816344 <_ctype+0x80bf98>
40009994:	00217965 	eoreq	r7, r1, r5, ror #18
40009998:	74207331 	strtvc	r7, [r0], #-817	; 0x331
4000999c:	72656d69 	rsbvc	r6, r5, #6720	; 0x1a40
400099a0:	746e6920 	strbtvc	r6, [lr], #-2336	; 0x920
400099a4:	75727265 	ldrbvc	r7, [r2, #-613]!	; 0x265
400099a8:	000a7470 	andeq	r7, sl, r0, ror r4

Disassembly of section .data:

400099ac <stack>:
	...

4000a3ac <_ctype>:
4000a3ac:	08080808 	stmdaeq	r8, {r3, fp}
4000a3b0:	08080808 	stmdaeq	r8, {r3, fp}
4000a3b4:	28282808 	stmdacs	r8!, {r3, fp, sp}
4000a3b8:	08082828 	stmdaeq	r8, {r3, r5, fp, sp}
4000a3bc:	08080808 	stmdaeq	r8, {r3, fp}
4000a3c0:	08080808 	stmdaeq	r8, {r3, fp}
4000a3c4:	08080808 	stmdaeq	r8, {r3, fp}
4000a3c8:	08080808 	stmdaeq	r8, {r3, fp}
4000a3cc:	101010a0 	andsne	r1, r0, r0, lsr #1
4000a3d0:	10101010 	andsne	r1, r0, r0, lsl r0
4000a3d4:	10101010 	andsne	r1, r0, r0, lsl r0
4000a3d8:	10101010 	andsne	r1, r0, r0, lsl r0
4000a3dc:	04040404 	streq	r0, [r4], #-1028	; 0x404
4000a3e0:	04040404 	streq	r0, [r4], #-1028	; 0x404
4000a3e4:	10100404 	andsne	r0, r0, r4, lsl #8
4000a3e8:	10101010 	andsne	r1, r0, r0, lsl r0
4000a3ec:	41414110 	cmpmi	r1, r0, lsl r1
4000a3f0:	01414141 	cmpeq	r1, r1, asr #2
4000a3f4:	01010101 	tsteq	r1, r1, lsl #2
4000a3f8:	01010101 	tsteq	r1, r1, lsl #2
4000a3fc:	01010101 	tsteq	r1, r1, lsl #2
4000a400:	01010101 	tsteq	r1, r1, lsl #2
4000a404:	10010101 	andne	r0, r1, r1, lsl #2
4000a408:	10101010 	andsne	r1, r0, r0, lsl r0
4000a40c:	42424210 	submi	r4, r2, #16, 4
4000a410:	02424242 	subeq	r4, r2, #536870916	; 0x20000004
4000a414:	02020202 	andeq	r0, r2, #536870912	; 0x20000000
4000a418:	02020202 	andeq	r0, r2, #536870912	; 0x20000000
4000a41c:	02020202 	andeq	r0, r2, #536870912	; 0x20000000
4000a420:	02020202 	andeq	r0, r2, #536870912	; 0x20000000
4000a424:	10020202 	andne	r0, r2, r2, lsl #4
4000a428:	08101010 	ldmdaeq	r0, {r4, ip}
	...
4000a44c:	101010a0 	andsne	r1, r0, r0, lsr #1
4000a450:	10101010 	andsne	r1, r0, r0, lsl r0
4000a454:	10101010 	andsne	r1, r0, r0, lsl r0
4000a458:	10101010 	andsne	r1, r0, r0, lsl r0
4000a45c:	10101010 	andsne	r1, r0, r0, lsl r0
4000a460:	10101010 	andsne	r1, r0, r0, lsl r0
4000a464:	10101010 	andsne	r1, r0, r0, lsl r0
4000a468:	10101010 	andsne	r1, r0, r0, lsl r0
4000a46c:	01010101 	tsteq	r1, r1, lsl #2
4000a470:	01010101 	tsteq	r1, r1, lsl #2
4000a474:	01010101 	tsteq	r1, r1, lsl #2
4000a478:	01010101 	tsteq	r1, r1, lsl #2
4000a47c:	01010101 	tsteq	r1, r1, lsl #2
4000a480:	10010101 	andne	r0, r1, r1, lsl #2
4000a484:	01010101 	tsteq	r1, r1, lsl #2
4000a488:	02010101 	andeq	r0, r1, #1073741824	; 0x40000000
4000a48c:	02020202 	andeq	r0, r2, #536870912	; 0x20000000
4000a490:	02020202 	andeq	r0, r2, #536870912	; 0x20000000
4000a494:	02020202 	andeq	r0, r2, #536870912	; 0x20000000
4000a498:	02020202 	andeq	r0, r2, #536870912	; 0x20000000
4000a49c:	02020202 	andeq	r0, r2, #536870912	; 0x20000000
4000a4a0:	10020202 	andne	r0, r2, r2, lsl #4
4000a4a4:	02020202 	andeq	r0, r2, #536870912	; 0x20000000
4000a4a8:	02020202 	andeq	r0, r2, #536870912	; 0x20000000

Disassembly of section .ARM.attributes:

00000000 <.ARM.attributes>:
   0:	00000f41 	andeq	r0, r0, r1, asr #30
   4:	61656100 	cmnvs	r5, r0, lsl #2
   8:	01006962 	tsteq	r0, r2, ror #18
   c:	00000005 	andeq	r0, r0, r5

Disassembly of section .comment:

00000000 <.comment>:
   0:	3a434347 	bcc	10d0d24 <_start-0x3ef372dc>
   4:	72632820 	rsbvc	r2, r3, #32, 16	; 0x200000
   8:	7473736f 	ldrbtvc	r7, [r3], #-879	; 0x36f
   c:	2d6c6f6f 	stclcs	15, cr6, [ip, #-444]!	; 0xfffffe44
  10:	6820474e 	stmdavs	r0!, {r1, r2, r3, r6, r8, r9, sl, lr}
  14:	65642b67 	strbvs	r2, [r4, #-2919]!	; 0xb67
  18:	6c756166 	ldfvse	f6, [r5], #-408	; 0xfffffe68
  1c:	36322d74 			; <UNDEFINED> instruction: 0x36322d74
  20:	66643538 			; <UNDEFINED> instruction: 0x66643538
  24:	65643961 	strbvs	r3, [r4, #-2401]!	; 0x961
  28:	2d203431 	cfstrscs	mvf3, [r0, #-196]!	; 0xffffff3c
  2c:	30637420 	rsbcc	r7, r3, r0, lsr #8
  30:	29323030 	ldmdbcs	r2!, {r4, r5, ip, sp}
  34:	362e3420 	strtcc	r3, [lr], -r0, lsr #8
  38:	Address 0x00000038 is out of bounds.


Disassembly of section .debug_line:

00000000 <.debug_line>:
   0:	00000072 	andeq	r0, r0, r2, ror r0
   4:	00240002 	eoreq	r0, r4, r2
   8:	01020000 	mrseq	r0, (UNDEF: 2)
   c:	000d0efb 	strdeq	r0, [sp], -fp
  10:	01010101 	tsteq	r1, r1, lsl #2
  14:	01000000 	mrseq	r0, (UNDEF: 0)
  18:	73010000 	movwvc	r0, #4096	; 0x1000
  1c:	74726174 	ldrbtvc	r6, [r2], #-372	; 0x174
  20:	74730000 	ldrbtvc	r0, [r3], #-0
  24:	2e747261 	cdpcs	2, 7, cr7, cr4, cr1, {3}
  28:	00010053 	andeq	r0, r1, r3, asr r0
  2c:	05000000 	streq	r0, [r0, #-0]
  30:	00800002 	addeq	r0, r0, r2
  34:	2f2f1540 	svccs	0x002f1540
  38:	2f2f2f2f 	svccs	0x002f2f2f
  3c:	f20d032f 	vcgt.s8	d0, d13, d31
  40:	2f2f302f 	svccs	0x002f302f
  44:	342f302f 	strtcc	r3, [pc], #-47	; 4c <_start-0x40007fb4>
  48:	2f322f2f 	svccs	0x00322f2f
  4c:	2f2f2f33 	svccs	0x002f2f33
  50:	032f2f2f 	teqeq	pc, #47, 30	; 0xbc
  54:	2f312e16 	svccs	0x00312e16
  58:	302f2f30 	eorcc	r2, pc, r0, lsr pc	; <UNPREDICTABLE>
  5c:	2f302f2f 	svccs	0x00302f2f
  60:	2f2f302f 	svccs	0x002f302f
  64:	03302f30 	teqeq	r0, #48, 30	; 0xc0
  68:	312f820a 	teqcc	pc, sl, lsl #4
  6c:	7fa1032f 	svcvc	0x00a1032f
  70:	0002024a 	andeq	r0, r2, sl, asr #4
  74:	00650101 	rsbeq	r0, r5, r1, lsl #2
  78:	00020000 	andeq	r0, r2, r0
  7c:	0000002c 	andeq	r0, r0, ip, lsr #32
  80:	0efb0102 	cdpeq	1, 15, cr0, cr11, cr2, {0}
  84:	0101000d 	tsteq	r1, sp
  88:	00000101 	andeq	r0, r0, r1, lsl #2
  8c:	00000100 	andeq	r0, r0, r0, lsl #2
  90:	6d6f6301 	stclvs	3, cr6, [pc, #-4]!	; 94 <_start-0x40007f6c>
  94:	2f6e6f6d 	svccs	0x006e6f6d
  98:	00637273 	rsbeq	r7, r3, r3, ror r2
  9c:	64755f00 	ldrbtvs	r5, [r5], #-3840	; 0xf00
  a0:	69737669 	ldmdbvs	r3!, {r0, r3, r5, r6, r9, sl, ip, sp, lr}^
  a4:	00532e33 	subseq	r2, r3, r3, lsr lr
  a8:	00000001 	andeq	r0, r0, r1
  ac:	00020500 	andeq	r0, r2, r0, lsl #10
  b0:	03400081 	movteq	r0, #129	; 0x81
  b4:	2f2f0111 	svccs	0x002f0111
  b8:	342f2f2f 	strtcc	r2, [pc], #-3887	; c0 <_start-0x40007f40>
  bc:	2f2f2f2f 	svccs	0x002f2f2f
  c0:	2f2f2f32 	svccs	0x002f2f32
  c4:	2f2f342f 	svccs	0x002f342f
  c8:	2f2f2f2f 	svccs	0x002f2f2f
  cc:	2f2f2f2f 	svccs	0x002f2f2f
  d0:	2f2f2f2f 	svccs	0x002f2f2f
  d4:	302f302f 	eorcc	r3, pc, pc, lsr #32
  d8:	02022f30 	andeq	r2, r2, #48, 30	; 0xc0
  dc:	6c010100 	stfvss	f0, [r1], {-0}
  e0:	02000000 	andeq	r0, r0, #0
  e4:	00002c00 	andeq	r2, r0, r0, lsl #24
  e8:	fb010200 	blx	408f2 <_start-0x3ffc770e>
  ec:	01000d0e 	tsteq	r0, lr, lsl #26
  f0:	00010101 	andeq	r0, r1, r1, lsl #2
  f4:	00010000 	andeq	r0, r1, r0
  f8:	6f630100 	svcvs	0x00630100
  fc:	6e6f6d6d 	cdpvs	13, 6, cr6, cr15, cr13, {3}
 100:	6372732f 	cmnvs	r2, #-1140850688	; 0xbc000000
 104:	755f0000 	ldrbvc	r0, [pc, #-0]	; 10c <_start-0x40007ef4>
 108:	73646f6d 	cmnvc	r4, #436	; 0x1b4
 10c:	532e3369 	teqpl	lr, #-1543503871	; 0xa4000001
 110:	00000100 	andeq	r0, r0, r0, lsl #2
 114:	02050000 	andeq	r0, r5, #0
 118:	40008194 	mulmi	r0, r4, r1
 11c:	2f011203 	svccs	0x00011203
 120:	342f2f2f 	strtcc	r2, [pc], #-3887	; 128 <_start-0x40007ed8>
 124:	2f2f2f2f 	svccs	0x002f2f2f
 128:	2f2f2f32 	svccs	0x002f2f32
 12c:	2f2f332f 	svccs	0x002f332f
 130:	2f2f2f2f 	svccs	0x002f2f2f
 134:	2f2f2f2f 	svccs	0x002f2f2f
 138:	2f2f2f2f 	svccs	0x002f2f2f
 13c:	2f352f2f 	svccs	0x00352f2f
 140:	2f2f2f2f 	svccs	0x002f2f2f
 144:	302f2f2f 	eorcc	r2, pc, pc, lsr #30
 148:	02022f30 	andeq	r2, r2, #48, 30	; 0xc0
 14c:	53010100 	movwpl	r0, #4352	; 0x1100
 150:	02000002 	andeq	r0, r0, #2
 154:	00005200 	andeq	r5, r0, r0, lsl #4
 158:	fb010200 	blx	40962 <_start-0x3ffc769e>
 15c:	01000d0e 	tsteq	r0, lr, lsl #26
 160:	00010101 	andeq	r0, r1, r1, lsl #2
 164:	00010000 	andeq	r0, r1, r0
 168:	2f2e0100 	svccs	0x002e0100
 16c:	6d6d6f63 	stclvs	15, cr6, [sp, #-396]!	; 0xfffffe74
 170:	692f6e6f 	stmdbvs	pc!, {r0, r1, r2, r3, r5, r6, r9, sl, fp, sp, lr}	; <UNPREDICTABLE>
 174:	756c636e 	strbvc	r6, [ip, #-878]!	; 0x36e
 178:	63006564 	movwvs	r6, #1380	; 0x564
 17c:	6f6d6d6f 	svcvs	0x006d6d6f
 180:	72732f6e 	rsbsvc	r2, r3, #440	; 0x1b8
 184:	63000063 	movwvs	r0, #99	; 0x63
 188:	65707974 	ldrbvs	r7, [r0, #-2420]!	; 0x974
 18c:	0100682e 	tsteq	r0, lr, lsr #16
 190:	72700000 	rsbsvc	r0, r0, #0
 194:	66746e69 	ldrbtvs	r6, [r4], -r9, ror #28
 198:	0200632e 	andeq	r6, r0, #-1207959552	; 0xb8000000
 19c:	74730000 	ldrbtvc	r0, [r3], #-0
 1a0:	67726164 	ldrbvs	r6, [r2, -r4, ror #2]!
 1a4:	0100682e 	tsteq	r0, lr, lsr #16
 1a8:	00000000 	andeq	r0, r0, r0
 1ac:	82440205 	subhi	r0, r4, #1342177280	; 0x50000000
 1b0:	c4034000 	strgt	r4, [r3], #-0
 1b4:	bb9f0100 	bllt	fe7c05bc <_ctype+0xbe7b6210>
 1b8:	02042f67 	andeq	r2, r4, #412	; 0x19c
 1bc:	9e7fbf03 	cdpls	15, 7, cr11, cr15, cr3, {0}
 1c0:	67834cbb 			; <UNDEFINED> instruction: 0x67834cbb
 1c4:	01040200 	mrseq	r0, R12_usr
 1c8:	f3068206 	vhsub.u8	d8, d6, d6
 1cc:	4d67684b 	stclmi	8, cr6, [r7, #-300]!	; 0xfffffed4
 1d0:	bb304c67 	bllt	c13374 <_start-0x3f3f4c8c>
 1d4:	0402007f 	streq	r0, [r2], #-127	; 0x7f
 1d8:	002e0601 	eoreq	r0, lr, r1, lsl #12
 1dc:	d6020402 	strle	r0, [r2], -r2, lsl #8
 1e0:	01040200 	mrseq	r0, R12_usr
 1e4:	040200d6 	streq	r0, [r2], #-214	; 0xd6
 1e8:	d7068202 	strle	r8, [r6, -r2, lsl #4]
 1ec:	03040200 	movweq	r0, #16896	; 0x4200
 1f0:	0200d606 	andeq	sp, r0, #6291456	; 0x600000
 1f4:	65060504 	strvs	r0, [r6, #-1284]	; 0x504
 1f8:	2f6767a3 	svccs	0x006767a3
 1fc:	0883bb85 	stmeq	r3, {r0, r2, r7, r8, r9, fp, ip, sp, pc}
 200:	24039f21 	strcs	r9, [r3], #-3873	; 0xf21
 204:	2f4c8366 	svccs	0x004c8366
 208:	01040200 	mrseq	r0, R12_usr
 20c:	0200c708 	andeq	ip, r0, #8, 14	; 0x200000
 210:	9e060204 	cdpls	2, 0, cr0, cr6, cr4, {0}
 214:	032fa006 	teqeq	pc, #6
 218:	4dd88220 	lfmmi	f0, 3, [r8, #128]	; 0x80
 21c:	67834b83 	strvs	r4, [r3, r3, lsl #23]
 220:	01040200 	mrseq	r0, R12_usr
 224:	67066606 	strvs	r6, [r6, -r6, lsl #12]
 228:	0402004b 	streq	r0, [r2], #-75	; 0x4b
 22c:	009e0601 	addseq	r0, lr, r1, lsl #12
 230:	4a020402 	bmi	81240 <_start-0x3ff86dc0>
 234:	03040200 	movweq	r0, #16896	; 0x4200
 238:	0402002e 	streq	r0, [r2], #-46	; 0x2e
 23c:	002f0603 	eoreq	r0, pc, r3, lsl #12
 240:	4b030402 	blmi	c1250 <_start-0x3ff46db0>
 244:	674b6783 	strbvs	r6, [fp, -r3, lsl #15]
 248:	834b8383 	movthi	r8, #45955	; 0xb383
 24c:	83694b83 	cmnhi	r9, #134144	; 0x20c00
 250:	68678367 	stmdavs	r7!, {r0, r1, r2, r5, r6, r8, r9, pc}^
 254:	5a08674b 	bpl	219f88 <_start-0x3fdee078>
 258:	04020083 	streq	r0, [r2], #-131	; 0x83
 25c:	10320201 	eorsne	r0, r2, r1, lsl #4
 260:	83834b69 	orrhi	r4, r3, #107520	; 0x1a400
 264:	0402002f 	streq	r0, [r2], #-47	; 0x2f
 268:	3e08b901 	cdpcc	9, 0, cr11, cr8, cr1, {0}
 26c:	6783bb67 	strvs	fp, [r3, r7, ror #22]
 270:	d9bb67d7 	ldmible	fp!, {r0, r1, r2, r4, r6, r7, r8, r9, sl, sp, lr}
 274:	02002f83 	andeq	r2, r0, #524	; 0x20c
 278:	08b90104 	ldmeq	r9!, {r2, r8}
 27c:	00d52f3e 	sbcseq	r2, r5, lr, lsr pc
 280:	06010402 	streq	r0, [r1], -r2, lsl #8
 284:	5a08062e 	bpl	201b44 <_start-0x3fe064bc>
 288:	0402002f 	streq	r0, [r2], #-47	; 0x2f
 28c:	08570801 	ldmdaeq	r7, {r0, fp}^
 290:	02002f3e 	andeq	r2, r0, #62, 30	; 0xf8
 294:	08b90104 	ldmeq	r9!, {r2, r8}
 298:	a1a32f3e 			; <UNDEFINED> instruction: 0xa1a32f3e
 29c:	01040200 	mrseq	r0, R12_usr
 2a0:	02006606 	andeq	r6, r0, #6291456	; 0x600000
 2a4:	90080204 	andls	r0, r8, r4, lsl #4
 2a8:	84678406 	strbthi	r8, [r7], #-1030	; 0x406
 2ac:	67ba1203 	ldrvs	r1, [sl, r3, lsl #4]!
 2b0:	4c32d783 	ldcmi	7, cr13, [r2], #-524	; 0xfffffdf4
 2b4:	132e0267 	teqne	lr, #1879048198	; 0x70000006
 2b8:	83838383 	orrhi	r8, r3, #201326594	; 0xc000002
 2bc:	02004b86 	andeq	r4, r0, #137216	; 0x21800
 2c0:	82060104 	andhi	r0, r6, #4, 2
 2c4:	839f8306 	orrshi	r8, pc, #402653184	; 0x18000000
 2c8:	67679f68 	strbvs	r9, [r7, -r8, ror #30]!
 2cc:	67834b6b 	strvs	r4, [r3, fp, ror #22]
 2d0:	01040200 	mrseq	r0, R12_usr
 2d4:	83068206 	movwhi	r8, #25094	; 0x6206
 2d8:	a068839f 	mlsge	r8, pc, r3, r8	; <UNPREDICTABLE>
 2dc:	004b4e67 	subeq	r4, fp, r7, ror #28
 2e0:	06010402 	streq	r0, [r1], -r2, lsl #8
 2e4:	04020082 	streq	r0, [r2], #-130	; 0x82
 2e8:	00f30601 	rscseq	r0, r3, r1, lsl #12
 2ec:	49010402 	stmdbmi	r1, {r1, sl}
 2f0:	0402004b 	streq	r0, [r2], #-75	; 0x4b
 2f4:	00820601 	addeq	r0, r2, r1, lsl #12
 2f8:	06010402 	streq	r0, [r1], -r2, lsl #8
 2fc:	04020083 	streq	r0, [r2], #-131	; 0x83
 300:	674c4901 	strbvs	r4, [ip, -r1, lsl #18]
 304:	01040200 	mrseq	r0, R12_usr
 308:	9f066606 	svcls	0x00066606
 30c:	4c6a684b 	stclmi	8, cr6, [sl], #-300	; 0xfffffed4
 310:	1401b402 	strne	fp, [r1], #-1026	; 0x402
 314:	02002f83 	andeq	r2, r0, #524	; 0x20c
 318:	bcb90104 	ldflts	f0, [r9], #16
 31c:	002f3d08 	eoreq	r3, pc, r8, lsl #26
 320:	b9010402 	stmdblt	r1, {r1, sl}
 324:	679f31bc 			; <UNDEFINED> instruction: 0x679f31bc
 328:	2f83bc4c 	svccs	0x0083bc4c
 32c:	01040200 	mrseq	r0, R12_usr
 330:	005a08b9 	ldrheq	r0, [sl], #-137	; 0xffffff77
 334:	67020402 	strvs	r0, [r2, -r2, lsl #8]
 338:	02040200 	andeq	r0, r4, #0, 4
 33c:	02003b08 	andeq	r3, r0, #8, 22	; 0x2000
 340:	66060104 	strvs	r0, [r6], -r4, lsl #2
 344:	002f8406 	eoreq	r8, pc, r6, lsl #8
 348:	b9010402 	stmdblt	r1, {r1, sl}
 34c:	67315a08 	ldrvs	r5, [r1, -r8, lsl #20]!
 350:	0881694b 	stmeq	r1, {r0, r1, r3, r6, r8, fp, sp, lr}
 354:	9f67323f 	svcls	0x0067323f
 358:	a09f2ba3 	addsge	r2, pc, r3, lsr #23
 35c:	4b32bb31 	blmi	caf028 <_start-0x3f358fd8>
 360:	324b6831 	subcc	r6, fp, #3211264	; 0x310000
 364:	83bb3168 			; <UNDEFINED> instruction: 0x83bb3168
 368:	03672dd9 	cmneq	r7, #13888	; 0x3640
 36c:	0f032e78 	svceq	0x00032e78
 370:	00bb672e 	adcseq	r6, fp, lr, lsr #14
 374:	06010402 	streq	r0, [r1], -r2, lsl #8
 378:	bb670666 	bllt	19c1d18 <_start-0x3e6462e8>
 37c:	bb67bb67 	bllt	19ef120 <_start-0x3e618ee0>
 380:	bc839f83 	stclt	15, cr9, [r3], {131}	; 0x83
 384:	7ee2039f 	mcrvc	3, 7, r0, cr2, cr15, {4}
 388:	02007408 	andeq	r7, r0, #8, 8	; 0x8000000
 38c:	66060104 	strvs	r0, [r6], -r4, lsl #2
 390:	01a00306 	lsleq	r0, r6, #6
 394:	85676782 	strbhi	r6, [r7, #-1922]!	; 0x782
 398:	2fbc67a2 	svccs	0x00bc67a2
 39c:	f46b86a1 	vld1.32	{d24-d26}, [fp :128], r1
 3a0:	00080267 	andeq	r0, r8, r7, ror #4
 3a4:	00790101 	rsbseq	r0, r9, r1, lsl #2
 3a8:	00020000 	andeq	r0, r2, r0
 3ac:	0000004a 	andeq	r0, r0, sl, asr #32
 3b0:	0efb0102 	cdpeq	1, 15, cr0, cr11, cr2, {0}
 3b4:	0101000d 	tsteq	r1, sp
 3b8:	00000101 	andeq	r0, r0, r1, lsl #2
 3bc:	00000100 	andeq	r0, r0, r0, lsl #2
 3c0:	6d6f6301 	stclvs	3, cr6, [pc, #-4]!	; 3c4 <_start-0x40007c3c>
 3c4:	2f6e6f6d 	svccs	0x006e6f6d
 3c8:	00637273 	rsbeq	r7, r3, r3, ror r2
 3cc:	6f632f2e 	svcvs	0x00632f2e
 3d0:	6e6f6d6d 	cdpvs	13, 6, cr6, cr15, cr13, {3}
 3d4:	636e692f 	cmnvs	lr, #770048	; 0xbc000
 3d8:	6564756c 	strbvs	r7, [r4, #-1388]!	; 0x56c
 3dc:	61750000 	cmnvs	r5, r0
 3e0:	632e7472 	teqvs	lr, #1912602624	; 0x72000000
 3e4:	00000100 	andeq	r0, r0, r0, lsl #2
 3e8:	6e797865 	cdpvs	8, 7, cr7, cr9, cr5, {3}
 3ec:	345f736f 	ldrbcc	r7, [pc], #-879	; 3f4 <_start-0x40007c0c>
 3f0:	2e323134 	mrccs	1, 1, r3, cr2, cr4, {1}
 3f4:	00020068 	andeq	r0, r2, r8, rrx
 3f8:	05000000 	streq	r0, [r0, #-0]
 3fc:	00941c02 	addseq	r1, r4, r2, lsl #24
 400:	bc4d1540 	cfstr64lt	mvdx1, [sp], {64}	; 0x40
 404:	67676867 	strbvs	r6, [r7, -r7, ror #16]!
 408:	02009fa1 	andeq	r9, r0, #644	; 0x284
 40c:	2e060104 	adfcss	f0, f6, f4
 410:	67679f06 	strbvs	r9, [r7, -r6, lsl #30]!
 414:	2f83684b 	svccs	0x0083684b
 418:	01040200 	mrseq	r0, R12_usr
 41c:	040284d5 	streq	r8, [r2], #-1237	; 0x4d5
 420:	67010100 	strvs	r0, [r1, -r0, lsl #2]
 424:	02000000 	andeq	r0, r0, #0
 428:	00004100 	andeq	r4, r0, r0, lsl #2
 42c:	fb010200 	blx	40c36 <_start-0x3ffc73ca>
 430:	01000d0e 	tsteq	r0, lr, lsl #26
 434:	00010101 	andeq	r0, r1, r1, lsl #2
 438:	00010000 	andeq	r0, r1, r0
 43c:	2f2e0100 	svccs	0x002e0100
 440:	6d6d6f63 	stclvs	15, cr6, [sp, #-396]!	; 0xfffffe74
 444:	692f6e6f 	stmdbvs	pc!, {r0, r1, r2, r3, r5, r6, r9, sl, fp, sp, lr}	; <UNPREDICTABLE>
 448:	756c636e 	strbvc	r6, [ip, #-878]!	; 0x36e
 44c:	00006564 	andeq	r6, r0, r4, ror #10
 450:	695f6f64 	ldmdbvs	pc, {r2, r5, r6, r8, r9, sl, fp, sp, lr}^	; <UNPREDICTABLE>
 454:	632e7172 	teqvs	lr, #-2147483620	; 0x8000001c
 458:	00000000 	andeq	r0, r0, r0
 45c:	6e797865 	cdpvs	8, 7, cr7, cr9, cr5, {3}
 460:	345f736f 	ldrbcc	r7, [pc], #-879	; 468 <_start-0x40007b98>
 464:	2e323134 	mrccs	1, 1, r3, cr2, cr4, {1}
 468:	00010068 	andeq	r0, r1, r8, rrx
 46c:	05000000 	streq	r0, [r0, #-0]
 470:	00952002 	addseq	r2, r5, r2
 474:	9f6a1440 	svcls	0x006a1440
 478:	a04c9fd9 	ldrdge	r9, [ip], #-249	; 0xffffff07
 47c:	a04c329f 	umaalge	r3, ip, pc, r2	; <UNPREDICTABLE>
 480:	760330a0 	strvc	r3, [r3], -r0, lsr #1
 484:	2e0d032e 	cdpcs	3, 0, cr0, cr13, cr14, {1}
 488:	001202f4 			; <UNDEFINED> instruction: 0x001202f4
 48c:	005d0101 	subseq	r0, sp, r1, lsl #2
 490:	00020000 	andeq	r0, r2, r0
 494:	0000003e 	andeq	r0, r0, lr, lsr r0
 498:	0efb0102 	cdpeq	1, 15, cr0, cr11, cr2, {0}
 49c:	0101000d 	tsteq	r1, sp
 4a0:	00000101 	andeq	r0, r0, r1, lsl #2
 4a4:	00000100 	andeq	r0, r0, r0, lsl #2
 4a8:	632f2e01 	teqvs	pc, #1, 28
 4ac:	6f6d6d6f 	svcvs	0x006d6d6f
 4b0:	6e692f6e 	cdpvs	15, 6, cr2, cr9, cr14, {3}
 4b4:	64756c63 	ldrbtvs	r6, [r5], #-3171	; 0xc63
 4b8:	6b000065 	blvs	654 <_start-0x400079ac>
 4bc:	632e7965 	teqvs	lr, #1654784	; 0x194000
 4c0:	00000000 	andeq	r0, r0, r0
 4c4:	6e797865 	cdpvs	8, 7, cr7, cr9, cr5, {3}
 4c8:	345f736f 	ldrbcc	r7, [pc], #-879	; 4d0 <_start-0x40007b30>
 4cc:	2e323134 	mrccs	1, 1, r3, cr2, cr4, {1}
 4d0:	00010068 	andeq	r0, r1, r8, rrx
 4d4:	05000000 	streq	r0, [r0, #-0]
 4d8:	00962402 	addseq	r2, r6, r2, lsl #8
 4dc:	a04c1440 	subge	r1, ip, r0, asr #8
 4e0:	4dbd9fbc 	ldcmi	15, cr9, [sp, #752]!	; 0x2f0
 4e4:	a1bcbca0 			; <UNDEFINED> instruction: 0xa1bcbca0
 4e8:	100267a0 	andne	r6, r2, r0, lsr #15
 4ec:	75010100 	strvc	r0, [r1, #-256]	; 0x100
 4f0:	02000000 	andeq	r0, r0, #0
 4f4:	00003f00 	andeq	r3, r0, r0, lsl #30
 4f8:	fb010200 	blx	40d02 <_start-0x3ffc72fe>
 4fc:	01000d0e 	tsteq	r0, lr, lsl #26
 500:	00010101 	andeq	r0, r1, r1, lsl #2
 504:	00010000 	andeq	r0, r1, r0
 508:	2f2e0100 	svccs	0x002e0100
 50c:	6d6d6f63 	stclvs	15, cr6, [sp, #-396]!	; 0xfffffe74
 510:	692f6e6f 	stmdbvs	pc!, {r0, r1, r2, r3, r5, r6, r9, sl, fp, sp, lr}	; <UNPREDICTABLE>
 514:	756c636e 	strbvc	r6, [ip, #-878]!	; 0x36e
 518:	00006564 	andeq	r6, r0, r4, ror #10
 51c:	6e69616d 	powvsez	f6, f1, #5.0
 520:	0000632e 	andeq	r6, r0, lr, lsr #6
 524:	78650000 	stmdavc	r5!, {}^	; <UNPREDICTABLE>
 528:	736f6e79 	cmnvc	pc, #1936	; 0x790
 52c:	3134345f 	teqcc	r4, pc, asr r4
 530:	00682e32 	rsbeq	r2, r8, r2, lsr lr
 534:	00000001 	andeq	r0, r0, r1
 538:	24020500 	strcs	r0, [r2], #-1280	; 0x500
 53c:	15400097 	strbne	r0, [r0, #-151]	; 0x97
 540:	00678383 	rsbeq	r8, r7, r3, lsl #7
 544:	06020402 	streq	r0, [r2], -r2, lsl #8
 548:	04020066 	streq	r0, [r2], #-102	; 0x66
 54c:	81066601 	tsthi	r6, r1, lsl #12
 550:	01040200 	mrseq	r0, R12_usr
 554:	84066606 	strhi	r6, [r6], #-1542	; 0x606
 558:	2f2f4b84 	svccs	0x002f4b84
 55c:	02002fbb 	andeq	r2, r0, #748	; 0x2ec
 560:	02340104 	eorseq	r0, r4, #4, 2
 564:	01010004 	tsteq	r1, r4
 568:	00000064 	andeq	r0, r0, r4, rrx
 56c:	00400002 	subeq	r0, r0, r2
 570:	01020000 	mrseq	r0, (UNDEF: 2)
 574:	000d0efb 	strdeq	r0, [sp], -fp
 578:	01010101 	tsteq	r1, r1, lsl #2
 57c:	01000000 	mrseq	r0, (UNDEF: 0)
 580:	2e010000 	cdpcs	0, 0, cr0, cr1, cr0, {0}
 584:	6d6f632f 	stclvs	3, cr6, [pc, #-188]!	; 4d0 <_start-0x40007b30>
 588:	2f6e6f6d 	svccs	0x006e6f6d
 58c:	6c636e69 	stclvs	14, cr6, [r3], #-420	; 0xfffffe5c
 590:	00656475 	rsbeq	r6, r5, r5, ror r4
 594:	6d697400 	cfstrdvs	mvd7, [r9, #-0]
 598:	632e7265 	teqvs	lr, #1342177286	; 0x50000006
 59c:	00000000 	andeq	r0, r0, r0
 5a0:	6e797865 	cdpvs	8, 7, cr7, cr9, cr5, {3}
 5a4:	345f736f 	ldrbcc	r7, [pc], #-879	; 5ac <_start-0x40007a54>
 5a8:	2e323134 	mrccs	1, 1, r3, cr2, cr4, {1}
 5ac:	00010068 	andeq	r0, r1, r8, rrx
 5b0:	05000000 	streq	r0, [r0, #-0]
 5b4:	0097dc02 	addseq	sp, r7, r2, lsl #24
 5b8:	bc4c1440 	cfstrdlt	mvd1, [ip], {64}	; 0x40
 5bc:	a0a068bc 			; <UNDEFINED> instruction: 0xa0a068bc
 5c0:	a09fa0a0 	addsge	sl, pc, r0, lsr #1
 5c4:	bcbca04e 	ldclt	0, cr10, [ip], #312	; 0x138
 5c8:	0267a0a1 	rsbeq	sl, r7, #161	; 0xa1
 5cc:	01010010 	tsteq	r1, r0, lsl r0

Disassembly of section .debug_info:

00000000 <.debug_info>:
       0:	0000004f 	andeq	r0, r0, pc, asr #32
       4:	00000002 	andeq	r0, r0, r2
       8:	01040000 	mrseq	r0, (UNDEF: 4)
       c:	00000000 	andeq	r0, r0, r0
      10:	40008000 	andmi	r8, r0, r0
      14:	400080f8 	strdmi	r8, [r0], -r8	; <UNPREDICTABLE>
      18:	72617473 	rsbvc	r7, r1, #1929379840	; 0x73000000
      1c:	74732f74 	ldrbtvc	r2, [r3], #-3956	; 0xf74
      20:	2e747261 	cdpcs	2, 7, cr7, cr4, cr1, {3}
      24:	682f0053 	stmdavs	pc!, {r0, r1, r4, r6}	; <UNPREDICTABLE>
      28:	2f656d6f 	svccs	0x00656d6f
      2c:	6a797168 	bvs	1e5c5d4 <_start-0x3e1aba2c>
      30:	3243442f 	subcc	r4, r3, #788529152	; 0x2f000000
      34:	2f313030 	svccs	0x00313030
      38:	6b2d3830 	blvs	b4e100 <_start-0x3f4b9f00>
      3c:	692d7965 	pushvs	{r0, r2, r5, r6, r8, fp, ip, sp, lr}
      40:	47007172 	smlsdxmi	r0, r2, r1, r7
      44:	4120554e 	teqmi	r0, lr, asr #10
      48:	2e322053 	mrccs	0, 1, r2, cr2, cr3, {2}
      4c:	312e3332 	teqcc	lr, r2, lsr r3
      50:	57800100 	strpl	r0, [r0, r0, lsl #2]
      54:	02000000 	andeq	r0, r0, #0
      58:	00001400 	andeq	r1, r0, r0, lsl #8
      5c:	76010400 	strvc	r0, [r1], -r0, lsl #8
      60:	00000000 	andeq	r0, r0, r0
      64:	94400081 	strbls	r0, [r0], #-129	; 0x81
      68:	63400081 	movtvs	r0, #129	; 0x81
      6c:	6f6d6d6f 	svcvs	0x006d6d6f
      70:	72732f6e 	rsbsvc	r2, r3, #440	; 0x1b8
      74:	755f2f63 	ldrbvc	r2, [pc, #-3939]	; fffff119 <_ctype+0xbfff4d6d>
      78:	73766964 	cmnvc	r6, #100, 18	; 0x190000
      7c:	532e3369 	teqpl	lr, #-1543503871	; 0xa4000001
      80:	6f682f00 	svcvs	0x00682f00
      84:	682f656d 	stmdavs	pc!, {r0, r2, r3, r5, r6, r8, sl, sp, lr}	; <UNPREDICTABLE>
      88:	2f6a7971 	svccs	0x006a7971
      8c:	30324344 	eorscc	r4, r2, r4, asr #6
      90:	302f3130 	eorcc	r3, pc, r0, lsr r1	; <UNPREDICTABLE>
      94:	656b2d38 	strbvs	r2, [fp, #-3384]!	; 0xd38
      98:	72692d79 	rsbvc	r2, r9, #7744	; 0x1e40
      9c:	4e470071 	mcrmi	0, 2, r0, cr7, cr1, {3}
      a0:	53412055 	movtpl	r2, #4181	; 0x1055
      a4:	322e3220 	eorcc	r3, lr, #32, 4
      a8:	00312e33 	eorseq	r2, r1, r3, lsr lr
      ac:	00578001 	subseq	r8, r7, r1
      b0:	00020000 	andeq	r0, r2, r0
      b4:	00000028 	andeq	r0, r0, r8, lsr #32
      b8:	00df0104 	sbcseq	r0, pc, r4, lsl #2
      bc:	81940000 	orrshi	r0, r4, r0
      c0:	82444000 	subhi	r4, r4, #0
      c4:	6f634000 	svcvs	0x00634000
      c8:	6e6f6d6d 	cdpvs	13, 6, cr6, cr15, cr13, {3}
      cc:	6372732f 	cmnvs	r2, #-1140850688	; 0xbc000000
      d0:	6d755f2f 	ldclvs	15, cr5, [r5, #-188]!	; 0xffffff44
      d4:	6973646f 	ldmdbvs	r3!, {r0, r1, r2, r3, r5, r6, sl, sp, lr}^
      d8:	00532e33 	subseq	r2, r3, r3, lsr lr
      dc:	6d6f682f 	stclvs	8, cr6, [pc, #-188]!	; 28 <_start-0x40007fd8>
      e0:	71682f65 	cmnvc	r8, r5, ror #30
      e4:	442f6a79 	strtmi	r6, [pc], #-2681	; ec <_start-0x40007f14>
      e8:	30303243 	eorscc	r3, r0, r3, asr #4
      ec:	38302f31 	ldmdacc	r0!, {r0, r4, r5, r8, r9, sl, fp, sp}
      f0:	79656b2d 	stmdbvc	r5!, {r0, r2, r3, r5, r8, r9, fp, sp, lr}^
      f4:	7172692d 	cmnvc	r2, sp, lsr #18
      f8:	554e4700 	strbpl	r4, [lr, #-1792]	; 0x700
      fc:	20534120 	subscs	r4, r3, r0, lsr #2
     100:	33322e32 	teqcc	r2, #800	; 0x320
     104:	0100312e 	tsteq	r0, lr, lsr #2
     108:	0004b180 	andeq	fp, r4, r0, lsl #3
     10c:	3c000200 	sfmcc	f0, 4, [r0], {-0}
     110:	04000000 	streq	r0, [r0], #-0
     114:	00006d01 	andeq	r6, r0, r1, lsl #26
     118:	00990100 	addseq	r0, r9, r0, lsl #2
     11c:	00f20000 	rscseq	r0, r2, r0
     120:	82440000 	subhi	r0, r4, #0
     124:	941c4000 	ldrls	r4, [ip], #-0
     128:	014f4000 	mrseq	r4, SPSR
     12c:	41020000 	mrsmi	r0, (UNDEF: 2)
     130:	03000000 	movweq	r0, #0
     134:	00003028 	andeq	r3, r0, r8, lsr #32
     138:	00040300 	andeq	r0, r4, r0, lsl #6
     13c:	02000000 	andeq	r0, r0, #0
     140:	00000048 	andeq	r0, r0, r8, asr #32
     144:	00256603 	eoreq	r6, r5, r3, lsl #12
     148:	37040000 	strcc	r0, [r4, -r0]
     14c:	01000000 	mrseq	r0, (UNDEF: 0)
     150:	006a0144 	rsbeq	r0, sl, r4, asr #2
     154:	82440000 	subhi	r0, r4, #0
     158:	82944000 	addshi	r4, r4, #0
     15c:	00004000 	andeq	r4, r0, r0
     160:	006a0000 	rsbeq	r0, sl, r0
     164:	63050000 	movwvs	r0, #20480	; 0x5000
     168:	6a440100 	bvs	1100570 <_start-0x3ef07a90>
     16c:	02000000 	andeq	r0, r0, #0
     170:	06007891 			; <UNDEFINED> instruction: 0x06007891
     174:	005a0801 	subseq	r0, sl, r1, lsl #16
     178:	01070000 	mrseq	r0, (UNDEF: 7)
     17c:	00000012 	andeq	r0, r0, r2, lsl r0
     180:	d4010702 	strle	r0, [r1], #-1794	; 0x702
     184:	94000000 	strls	r0, [r0], #-0
     188:	38400082 	stmdacc	r0, {r1, r7}^
     18c:	2c400084 	mcrrcs	0, 8, r0, r0, cr4
     190:	d4000000 	strle	r0, [r0], #-0
     194:	05000000 	streq	r0, [r0, #-0]
     198:	02007063 	andeq	r7, r0, #99	; 0x63
     19c:	0000db07 	andeq	sp, r0, r7, lsl #22
     1a0:	6c910200 	lfmvs	f0, 4, [r1], {0}
     1a4:	0000d308 	andeq	sp, r0, r8, lsl #6
     1a8:	ed070200 	sfm	f0, 4, [r7, #-0]
     1ac:	02000000 	andeq	r0, r0, #0
     1b0:	68086891 	stmdavs	r8, {r0, r4, r7, fp, sp, lr}
     1b4:	02000000 	andeq	r0, r0, #0
     1b8:	0000f907 	andeq	pc, r0, r7, lsl #18
     1bc:	64910200 	ldrvs	r0, [r1], #512	; 0x200
     1c0:	0000bd09 	andeq	fp, r0, r9, lsl #26
     1c4:	d4090200 	strle	r0, [r9], #-512	; 0x200
     1c8:	02000000 	andeq	r0, r0, #0
     1cc:	21097491 			; <UNDEFINED> instruction: 0x21097491
     1d0:	02000000 	andeq	r0, r0, #0
     1d4:	0000d409 	andeq	sp, r0, r9, lsl #8
     1d8:	70910200 	addsvc	r0, r1, r0, lsl #4
     1dc:	07040600 	streq	r0, [r4, -r0, lsl #12]
     1e0:	00000079 	andeq	r0, r0, r9, ror r0
     1e4:	00e1040a 	rsceq	r0, r1, sl, lsl #8
     1e8:	e60b0000 	str	r0, [fp], -r0
     1ec:	06000000 	streq	r0, [r0], -r0
     1f0:	00630801 	rsbeq	r0, r3, r1, lsl #16
     1f4:	040a0000 	streq	r0, [sl], #-0
     1f8:	000000f3 	strdeq	r0, [r0], -r3
     1fc:	00e6040a 	rsceq	r0, r6, sl, lsl #8
     200:	04060000 	streq	r0, [r6], #-0
     204:	00007e07 	andeq	r7, r0, r7, lsl #28
     208:	8b010700 	blhi	41e10 <_start-0x3ffc61f0>
     20c:	02000000 	andeq	r0, r0, #0
     210:	01470122 	cmpeq	r7, r2, lsr #2
     214:	84380000 	ldrthi	r0, [r8], #-0
     218:	84a44000 	strthi	r4, [r4], #0
     21c:	00584000 	subseq	r4, r8, r0
     220:	01470000 	mrseq	r0, (UNDEF: 71)
     224:	63050000 	movwvs	r0, #20480	; 0x5000
     228:	22020070 	andcs	r0, r2, #112	; 0x70
     22c:	000000db 	ldrdeq	r0, [r0], -fp
     230:	08749102 	ldmdaeq	r4!, {r1, r8, ip, pc}^
     234:	000000d3 	ldrdeq	r0, [r0], -r3
     238:	00ed2202 	rsceq	r2, sp, r2, lsl #4
     23c:	91020000 	mrsls	r0, (UNDEF: 2)
     240:	00680870 	rsbeq	r0, r8, r0, ror r8
     244:	22020000 	andcs	r0, r2, #0
     248:	000000f9 	strdeq	r0, [r0], -r9
     24c:	006c9102 	rsbeq	r9, ip, r2, lsl #2
     250:	27050406 	strcs	r0, [r5, -r6, lsl #8]
     254:	04000001 	streq	r0, [r0], #-1
     258:	0000002d 	andeq	r0, r0, sp, lsr #32
     25c:	83014a02 	movwhi	r4, #6658	; 0x1a02
     260:	a4000001 	strge	r0, [r0], #-1
     264:	38400084 	stmdacc	r0, {r2, r7}^
     268:	84400085 	strbhi	r0, [r0], #-133	; 0x85
     26c:	83000000 	movwhi	r0, #0
     270:	05000001 	streq	r0, [r0, #-1]
     274:	4a020073 	bmi	80448 <_start-0x3ff87bb8>
     278:	0000018a 	andeq	r0, r0, sl, lsl #3
     27c:	0c749102 	ldfeqp	f1, [r4], #-8
     280:	4c020069 	stcmi	0, cr0, [r2], {105}	; 0x69
     284:	00000183 	andeq	r0, r0, r3, lsl #3
     288:	00789102 	rsbseq	r9, r8, r2, lsl #2
     28c:	6905040d 	stmdbvs	r5, {r0, r2, r3, sl}
     290:	0a00746e 	beq	1d450 <_start-0x3ffeabb0>
     294:	0000db04 	andeq	sp, r0, r4, lsl #22
     298:	01200400 	teqeq	r0, r0, lsl #8
     29c:	6f020000 	svcvs	0x00020000
     2a0:	0000f301 	andeq	pc, r0, r1, lsl #6
     2a4:	00853800 	addeq	r3, r5, r0, lsl #16
     2a8:	0089cc40 	addeq	ip, r9, r0, asr #24
     2ac:	0000b040 	andeq	fp, r0, r0, asr #32
     2b0:	00026000 	andeq	r6, r2, r0
     2b4:	74730500 	ldrbtvc	r0, [r3], #-1280	; 0x500
     2b8:	6f020072 	svcvs	0x00020072
     2bc:	000000f3 	strdeq	r0, [r0], -r3
     2c0:	7f9c9103 	svcvc	0x009c9103
     2c4:	6d756e05 	ldclvs	14, cr6, [r5, #-20]!	; 0xffffffec
     2c8:	476f0200 	strbmi	r0, [pc, -r0, lsl #4]!
     2cc:	03000001 	movweq	r0, #1
     2d0:	087f9891 	ldmdaeq	pc!, {r0, r4, r7, fp, ip, pc}^	; <UNPREDICTABLE>
     2d4:	00000068 	andeq	r0, r0, r8, rrx
     2d8:	00f96f02 	rscseq	r6, r9, r2, lsl #30
     2dc:	91030000 	mrsls	r0, (UNDEF: 3)
     2e0:	3b087f94 	blcc	220138 <_start-0x3fde7ec8>
     2e4:	02000001 	andeq	r0, r0, #1
     2e8:	0001836f 	andeq	r8, r1, pc, ror #6
     2ec:	90910300 	addsls	r0, r1, r0, lsl #6
     2f0:	0050087f 	subseq	r0, r0, pc, ror r8
     2f4:	6f020000 	svcvs	0x00020000
     2f8:	00000183 	andeq	r0, r0, r3, lsl #3
     2fc:	08009102 	stmdaeq	r0, {r1, r8, ip, pc}
     300:	000000da 	ldrdeq	r0, [r0], -sl
     304:	01836f02 	orreq	r6, r3, r2, lsl #30
     308:	91020000 	mrsls	r0, (UNDEF: 2)
     30c:	00630c04 	rsbeq	r0, r3, r4, lsl #24
     310:	00e67202 	rsceq	r7, r6, r2, lsl #4
     314:	91020000 	mrsls	r0, (UNDEF: 2)
     318:	0130096b 	teqeq	r0, fp, ror #18
     31c:	72020000 	andvc	r0, r2, #0
     320:	000000e6 	andeq	r0, r0, r6, ror #1
     324:	0c779102 	ldfeqp	f1, [r7], #-8
     328:	00706d74 	rsbseq	r6, r0, r4, ror sp
     32c:	02607202 	rsbeq	r7, r0, #536870912	; 0x20000000
     330:	91030000 	mrsls	r0, (UNDEF: 3)
     334:	df097fa0 	svcle	0x00097fa0
     338:	02000000 	andeq	r0, r0, #0
     33c:	0000db73 	andeq	sp, r0, r3, ror fp
     340:	70910200 	addsvc	r0, r1, r0, lsl #4
     344:	0200690c 	andeq	r6, r0, #12, 18	; 0x30000
     348:	00018374 	andeq	r8, r1, r4, ror r3
     34c:	6c910200 	lfmvs	f0, 4, [r1], {0}
     350:	0086fc0e 	addeq	pc, r6, lr, lsl #24
     354:	00873040 	addeq	r3, r7, r0, asr #32
     358:	01350940 	teqeq	r5, r0, asr #18
     35c:	96020000 	strls	r0, [r2], -r0
     360:	00000183 	andeq	r0, r0, r3, lsl #3
     364:	00649102 	rsbeq	r9, r4, r2, lsl #2
     368:	00e60f00 	rsceq	r0, r6, r0, lsl #30
     36c:	02700000 	rsbseq	r0, r0, #0
     370:	f9100000 			; <UNDEFINED> instruction: 0xf9100000
     374:	41000000 	mrsmi	r0, (UNDEF: 0)
     378:	cb010700 	blgt	41f80 <_start-0x3ffc6080>
     37c:	02000000 	andeq	r0, r0, #0
     380:	00f901b4 	ldrhteq	r0, [r9], #20
     384:	89cc0000 	stmibhi	ip, {}^	; <UNPREDICTABLE>
     388:	8a4c4000 	bhi	1310390 <_start-0x3ecf7c70>
     38c:	00dc4000 	sbcseq	r4, ip, r0
     390:	02b50000 	adcseq	r0, r5, #0
     394:	73050000 	movwvc	r0, #20480	; 0x5000
     398:	dbb40200 	blle	fed00ba0 <_ctype+0xbecf67f4>
     39c:	02000000 	andeq	r0, r0, #0
     3a0:	27087491 			; <UNDEFINED> instruction: 0x27087491
     3a4:	02000000 	andeq	r0, r0, #0
     3a8:	0000f9b4 			; <UNDEFINED> instruction: 0x0000f9b4
     3ac:	70910200 	addsvc	r0, r1, r0, lsl #4
     3b0:	0063730c 	rsbeq	r7, r3, ip, lsl #6
     3b4:	00dbb602 	sbcseq	fp, fp, r2, lsl #12
     3b8:	91020000 	mrsls	r0, (UNDEF: 2)
     3bc:	01070078 	tsteq	r7, r8, ror r0
     3c0:	00000140 	andeq	r0, r0, r0, asr #2
     3c4:	8301bc02 	movwhi	fp, #7170	; 0x1c02
     3c8:	4c000001 	stcmi	0, cr0, [r0], {1}
     3cc:	7440008a 	strbvc	r0, [r0], #-138	; 0x8a
     3d0:	08400093 	stmdaeq	r0, {r0, r1, r4, r7}^
     3d4:	c5000001 	strgt	r0, [r0, #-1]
     3d8:	05000003 	streq	r0, [r0, #-3]
     3dc:	00667562 	rsbeq	r7, r6, r2, ror #10
     3e0:	00f3bc02 	rscseq	fp, r3, r2, lsl #24
     3e4:	91020000 	mrsls	r0, (UNDEF: 2)
     3e8:	6d660544 	cfstr64vs	mvdx0, [r6, #-272]!	; 0xfffffef0
     3ec:	bc020074 	stclt	0, cr0, [r2], {116}	; 0x74
     3f0:	000000db 	ldrdeq	r0, [r0], -fp
     3f4:	08409102 	stmdaeq	r0, {r1, r8, ip, pc}^
     3f8:	0000011b 	andeq	r0, r0, fp, lsl r1
     3fc:	0036bc02 	eorseq	fp, r6, r2, lsl #24
     400:	91030000 	mrsls	r0, (UNDEF: 3)
     404:	6c0c7fbc 	stcvs	15, cr7, [ip], {188}	; 0xbc
     408:	02006e65 	andeq	r6, r0, #1616	; 0x650
     40c:	000183be 			; <UNDEFINED> instruction: 0x000183be
     410:	50910200 	addspl	r0, r1, r0, lsl #4
     414:	6d756e0c 	ldclvs	14, cr6, [r5, #-48]!	; 0xffffffd0
     418:	d4c20200 	strble	r0, [r2], #512	; 0x200
     41c:	02000000 	andeq	r0, r0, #0
     420:	690c7491 	stmdbvs	ip, {r0, r4, r7, sl, ip, sp, lr}
     424:	83c40200 	bichi	r0, r4, #0, 4
     428:	02000001 	andeq	r0, r0, #1
     42c:	68097091 	stmdavs	r9, {r0, r4, r7, ip, sp, lr}
     430:	02000000 	andeq	r0, r0, #0
     434:	000183c4 	andeq	r8, r1, r4, asr #7
     438:	6c910200 	lfmvs	f0, 4, [r1], {0}
     43c:	7274730c 	rsbsvc	r7, r4, #12, 6	; 0x30000000
     440:	f3c50200 	vsubl.u8	q8, d5, d0
     444:	02000000 	andeq	r0, r0, #0
     448:	730c6891 	movwvc	r6, #51345	; 0xc891
     44c:	dbc60200 	blle	ff180c54 <_ctype+0xbf1768a8>
     450:	02000000 	andeq	r0, r0, #0
     454:	ad096491 	cfstrsge	mvf6, [r9, #-580]	; 0xfffffdbc
     458:	02000000 	andeq	r0, r0, #0
     45c:	000183c8 	andeq	r8, r1, r8, asr #7
     460:	60910200 	addsvs	r0, r1, r0, lsl #4
     464:	00010f09 	andeq	r0, r1, r9, lsl #30
     468:	83ca0200 	bichi	r0, sl, #0, 4
     46c:	02000001 	andeq	r0, r0, #1
     470:	50095c91 	mulpl	r9, r1, ip
     474:	02000000 	andeq	r0, r0, #0
     478:	000183cb 	andeq	r8, r1, fp, asr #7
     47c:	58910200 	ldmpl	r1, {r9}
     480:	0000b309 	andeq	fp, r0, r9, lsl #6
     484:	83cd0200 	bichi	r0, sp, #0, 4
     488:	02000001 	andeq	r0, r0, #1
     48c:	c4115491 	ldrgt	r5, [r1], #-1169	; 0x491
     490:	02000000 	andeq	r0, r0, #0
     494:	008aa8d7 	ldrdeq	sl, [sl], r7
     498:	91001240 	tstls	r0, r0, asr #4
     49c:	91284000 	teqls	r8, r0
     4a0:	03ac4000 			; <UNDEFINED> instruction: 0x03ac4000
     4a4:	69130000 	ldmdbvs	r3, {}	; <UNPREDICTABLE>
     4a8:	35020070 	strcc	r0, [r2, #-112]	; 0x70
     4ac:	0003c501 	andeq	ip, r3, r1, lsl #10
     4b0:	4c910200 	lfmmi	f0, 4, [r1], {0}
     4b4:	912c0e00 	teqls	ip, r0, lsl #28
     4b8:	91544000 	cmpls	r4, r0
     4bc:	69134000 	ldmdbvs	r3, {lr}
     4c0:	38020070 	stmdacc	r2, {r4, r5, r6}
     4c4:	0003cb01 	andeq	ip, r3, r1, lsl #22
     4c8:	48910200 	ldmmi	r1, {r9}
     4cc:	040a0000 	streq	r0, [sl], #-0
     4d0:	00000147 	andeq	r0, r0, r7, asr #2
     4d4:	0183040a 	orreq	r0, r3, sl, lsl #8
     4d8:	01140000 	tsteq	r4, r0
     4dc:	00000141 	andeq	r0, r0, r1, asr #2
     4e0:	01017302 	tsteq	r1, r2, lsl #6
     4e4:	00000183 	andeq	r0, r0, r3, lsl #3
     4e8:	40009374 	andmi	r9, r0, r4, ror r3
     4ec:	400093c4 	andmi	r9, r0, r4, asr #7
     4f0:	00000134 	andeq	r0, r0, r4, lsr r1
     4f4:	0000042b 	andeq	r0, r0, fp, lsr #8
     4f8:	66756215 			; <UNDEFINED> instruction: 0x66756215
     4fc:	01730200 	cmneq	r3, r0, lsl #4
     500:	000000f3 	strdeq	r0, [r0], -r3
     504:	15609102 	strbne	r9, [r0, #-258]!	; 0x102
     508:	00746d66 	rsbseq	r6, r4, r6, ror #26
     50c:	db017302 	blle	5d11c <_start-0x3ffaaee4>
     510:	02000000 	andeq	r0, r0, #0
     514:	17167491 			; <UNDEFINED> instruction: 0x17167491
     518:	0000011b 	andeq	r0, r0, fp, lsl r1
     51c:	36017502 	strcc	r7, [r1], -r2, lsl #10
     520:	02000000 	andeq	r0, r0, #0
     524:	69136491 	ldmdbvs	r3, {r0, r4, r7, sl, sp, lr}
     528:	01760200 	cmneq	r6, r0, lsl #4
     52c:	00000183 	andeq	r0, r0, r3, lsl #3
     530:	00689102 	rsbeq	r9, r8, r2, lsl #2
     534:	01420118 	cmpeq	r2, r8, lsl r1
     538:	7e020000 	cdpvc	0, 0, cr0, cr2, cr0, {0}
     53c:	93c40101 	bicls	r0, r4, #1073741824	; 0x40000000
     540:	941c4000 	ldrls	r4, [ip], #-0
     544:	016c4000 	cmneq	ip, r0
     548:	04820000 	streq	r0, [r2], #0
     54c:	66150000 	ldrvs	r0, [r5], -r0
     550:	0200746d 	andeq	r7, r0, #1828716544	; 0x6d000000
     554:	00db017e 	sbcseq	r0, fp, lr, ror r1
     558:	91020000 	mrsls	r0, (UNDEF: 2)
     55c:	1b171670 	blne	5c5f24 <_start-0x3fa420dc>
     560:	02000001 	andeq	r0, r0, #1
     564:	00360180 	eorseq	r0, r6, r0, lsl #3
     568:	91020000 	mrsls	r0, (UNDEF: 2)
     56c:	00691360 	rsbeq	r1, r9, r0, ror #6
     570:	f9018102 			; <UNDEFINED> instruction: 0xf9018102
     574:	02000000 	andeq	r0, r0, #0
     578:	e6176491 			; <UNDEFINED> instruction: 0xe6176491
     57c:	02000000 	andeq	r0, r0, #0
     580:	04820182 	streq	r0, [r2], #386	; 0x182
     584:	91030000 	mrsls	r0, (UNDEF: 3)
     588:	0f007efc 	svceq	0x00007efc
     58c:	000000e6 	andeq	r0, r0, r6, ror #1
     590:	00000492 	muleq	r0, r2, r4
     594:	0000f910 	andeq	pc, r0, r0, lsl r9	; <UNPREDICTABLE>
     598:	0f006300 	svceq	0x00006300
     59c:	0000006a 	andeq	r0, r0, sl, rrx
     5a0:	000004a2 	andeq	r0, r0, r2, lsr #9
     5a4:	0000f910 	andeq	pc, r0, r0, lsl r9	; <UNPREDICTABLE>
     5a8:	1900ff00 	stmdbne	r0, {r8, r9, sl, fp, ip, sp, lr, pc}
     5ac:	000000d8 	ldrdeq	r0, [r0], -r8
     5b0:	04921101 	ldreq	r1, [r2], #257	; 0x101
     5b4:	05010000 	streq	r0, [r1, #-0]
     5b8:	00a3ac03 	adceq	sl, r3, r3, lsl #24
     5bc:	02060040 	andeq	r0, r6, #64	; 0x40
     5c0:	00020000 	andeq	r0, r2, r0
     5c4:	0000019e 	muleq	r0, lr, r1
     5c8:	006d0104 	rsbeq	r0, sp, r4, lsl #2
     5cc:	d5010000 	strle	r0, [r1, #-0]
     5d0:	f2000001 	vhadd.s8	d0, d0, d1
     5d4:	1c000000 	stcne	0, cr0, [r0], {-0}
     5d8:	20400094 	umaalcs	r0, r0, r4, r0
     5dc:	a6400095 			; <UNDEFINED> instruction: 0xa6400095
     5e0:	02000003 	andeq	r0, r0, #3
     5e4:	007e0704 	rsbseq	r0, lr, r4, lsl #14
     5e8:	18030000 	stmdane	r3, {}	; <UNPREDICTABLE>
     5ec:	90018902 	andls	r8, r1, r2, lsl #18
     5f0:	04000000 	streq	r0, [r0], #-0
     5f4:	004e4f43 	subeq	r4, lr, r3, asr #30
     5f8:	25018a02 	strcs	r8, [r1, #-2562]	; 0xa02
     5fc:	02000000 	andeq	r0, r0, #0
     600:	44040023 	strmi	r0, [r4], #-35	; 0x23
     604:	02005441 	andeq	r5, r0, #1090519040	; 0x41000000
     608:	0025018b 	eoreq	r0, r5, fp, lsl #3
     60c:	23020000 	movwcs	r0, #8192	; 0x2000
     610:	55500404 	ldrbpl	r0, [r0, #-1028]	; 0x404
     614:	8c020044 	stchi	0, cr0, [r2], {68}	; 0x44
     618:	00002501 	andeq	r2, r0, r1, lsl #10
     61c:	08230200 	stmdaeq	r3!, {r9}
     620:	56524404 	ldrbpl	r4, [r2], -r4, lsl #8
     624:	018d0200 	orreq	r0, sp, r0, lsl #4
     628:	00000025 	andeq	r0, r0, r5, lsr #32
     62c:	050c2302 	streq	r2, [ip, #-770]	; 0x302
     630:	00000198 	muleq	r0, r8, r1
     634:	25018e02 	strcs	r8, [r1, #-3586]	; 0xe02
     638:	02000000 	andeq	r0, r0, #0
     63c:	ce051023 	cdpgt	0, 0, cr1, cr5, cr3, {1}
     640:	02000001 	andeq	r0, r0, #1
     644:	0025018f 	eoreq	r0, r5, pc, lsl #3
     648:	23020000 	movwcs	r0, #8192	; 0x2000
     64c:	bb060014 	bllt	1806a4 <_start-0x3fe8795c>
     650:	02000001 	andeq	r0, r0, #1
     654:	002c0190 	mlaeq	ip, r0, r1, r0
     658:	3c030000 	stccc	0, cr0, [r3], {-0}
     65c:	8703c902 	strhi	ip, [r3, -r2, lsl #18]
     660:	05000001 	streq	r0, [r0, #-1]
     664:	000001b4 			; <UNDEFINED> instruction: 0x000001b4
     668:	2503ca02 	strcs	ip, [r3, #-2562]	; 0xa02
     66c:	02000000 	andeq	r0, r0, #0
     670:	9f050023 	svcls	0x00050023
     674:	02000001 	andeq	r0, r0, #1
     678:	002503cb 	eoreq	r0, r5, fp, asr #7
     67c:	23020000 	movwcs	r0, #8192	; 0x2000
     680:	018b0504 	orreq	r0, fp, r4, lsl #10
     684:	cc020000 	stcgt	0, cr0, [r2], {-0}
     688:	00002503 	andeq	r2, r0, r3, lsl #10
     68c:	08230200 	stmdaeq	r3!, {r9}
     690:	0001ec05 	andeq	lr, r1, r5, lsl #24
     694:	03cd0200 	biceq	r0, sp, #0, 4
     698:	00000025 	andeq	r0, r0, r5, lsr #32
     69c:	050c2302 	streq	r2, [ip, #-770]	; 0x302
     6a0:	00000173 	andeq	r0, r0, r3, ror r1
     6a4:	2503ce02 	strcs	ip, [r3, #-3586]	; 0xe02
     6a8:	02000000 	andeq	r0, r0, #0
     6ac:	c5051023 	strgt	r1, [r5, #-35]	; 0x23
     6b0:	02000001 	andeq	r0, r0, #1
     6b4:	002503cf 	eoreq	r0, r5, pc, asr #7
     6b8:	23020000 	movwcs	r0, #8192	; 0x2000
     6bc:	016b0514 	cmneq	fp, r4, lsl r5
     6c0:	d0020000 	andle	r0, r2, r0
     6c4:	00002503 	andeq	r2, r0, r3, lsl #10
     6c8:	18230200 	stmdane	r3!, {r9}
     6cc:	0001a505 	andeq	sl, r1, r5, lsl #10
     6d0:	03d10200 	bicseq	r0, r1, #0, 4
     6d4:	00000025 	andeq	r0, r0, r5, lsr #32
     6d8:	051c2302 	ldreq	r2, [ip, #-770]	; 0x302
     6dc:	00000192 	muleq	r0, r2, r1
     6e0:	2503d202 	strcs	sp, [r3, #-514]	; 0x202
     6e4:	02000000 	andeq	r0, r0, #0
     6e8:	f3052023 	vhadd.u8	d2, d5, d19
     6ec:	02000001 	andeq	r0, r0, #1
     6f0:	002503d3 	ldrdeq	r0, [r5], -r3	; <UNPREDICTABLE>
     6f4:	23020000 	movwcs	r0, #8192	; 0x2000
     6f8:	015e0524 	cmpeq	lr, r4, lsr #10
     6fc:	d4020000 	strle	r0, [r2], #-0
     700:	00002503 	andeq	r2, r0, r3, lsl #10
     704:	28230200 	stmdacs	r3!, {r9}
     708:	0001f905 	andeq	pc, r1, r5, lsl #18
     70c:	03d50200 	bicseq	r0, r5, #0, 4
     710:	00000025 	andeq	r0, r0, r5, lsr #32
     714:	052c2302 	streq	r2, [ip, #-770]!	; 0x302
     718:	0000014f 	andeq	r0, r0, pc, asr #2
     71c:	2503d602 	strcs	sp, [r3, #-1538]	; 0x602
     720:	02000000 	andeq	r0, r0, #0
     724:	56053023 	strpl	r3, [r5], -r3, lsr #32
     728:	02000001 	andeq	r0, r0, #1
     72c:	002503d7 	ldrdeq	r0, [r5], -r7	; <UNPREDICTABLE>
     730:	23020000 	movwcs	r0, #8192	; 0x2000
     734:	01ad0534 			; <UNDEFINED> instruction: 0x01ad0534
     738:	d8020000 	stmdale	r2, {}	; <UNPREDICTABLE>
     73c:	00002503 	andeq	r2, r0, r3, lsl #10
     740:	38230200 	stmdacc	r3!, {r9}
     744:	01490600 	cmpeq	r9, r0, lsl #12
     748:	d9020000 	stmdble	r2, {}	; <UNPREDICTABLE>
     74c:	00009c03 	andeq	r9, r0, r3, lsl #24
     750:	7c010700 	stcvc	7, cr0, [r1], {-0}
     754:	01000001 	tsteq	r0, r1
     758:	00941c03 	addseq	r1, r4, r3, lsl #24
     75c:	00948040 	addseq	r8, r4, r0, asr #32
     760:	0001a440 	andeq	sl, r1, r0, asr #8
     764:	c0010800 	andgt	r0, r1, r0, lsl #16
     768:	01000001 	tsteq	r0, r1
     76c:	94800110 	strls	r0, [r0], #272	; 0x110
     770:	94d84000 	ldrbls	r4, [r8], #0
     774:	01d04000 	bicseq	r4, r0, r0
     778:	01cf0000 	biceq	r0, pc, r0
     77c:	86090000 	strhi	r0, [r9], -r0
     780:	01000001 	tsteq	r0, r1
     784:	0001cf10 	andeq	ip, r1, r0, lsl pc
     788:	74910200 	ldrvc	r0, [r1], #512	; 0x200
     78c:	01d40a00 	bicseq	r0, r4, r0, lsl #20
     790:	01020000 	mrseq	r0, (UNDEF: 2)
     794:	00006308 	andeq	r6, r0, r8, lsl #6
     798:	e7010800 	str	r0, [r1, -r0, lsl #16]
     79c:	01000001 	tsteq	r0, r1
     7a0:	94d80117 	ldrbls	r0, [r8], #279	; 0x117
     7a4:	95204000 	strls	r4, [r0, #-0]!
     7a8:	01fc4000 	mvnseq	r4, r0
     7ac:	02030000 	andeq	r0, r3, #0
     7b0:	66090000 	strvs	r0, [r9], -r0
     7b4:	01000001 	tsteq	r0, r1
     7b8:	00020317 	andeq	r0, r2, r7, lsl r3
     7bc:	74910200 	ldrvc	r0, [r1], #512	; 0x200
     7c0:	cf040b00 	svcgt	0x00040b00
     7c4:	00000001 	andeq	r0, r0, r1
     7c8:	000002f4 	strdeq	r0, [r0], -r4
     7cc:	023e0002 	eorseq	r0, lr, #2
     7d0:	01040000 	mrseq	r0, (UNDEF: 4)
     7d4:	0000006d 	andeq	r0, r0, sp, rrx
     7d8:	00027801 	andeq	r7, r2, r1, lsl #16
     7dc:	0000f200 	andeq	pc, r0, r0, lsl #4
     7e0:	00952000 	addseq	r2, r5, r0
     7e4:	00962440 	addseq	r2, r6, r0, asr #8
     7e8:	00042340 	andeq	r2, r4, r0, asr #6
     7ec:	02480200 	subeq	r0, r8, #0, 4
     7f0:	013d012d 	teqeq	sp, sp, lsr #2
     7f4:	c1030000 	mrsgt	r0, (UNDEF: 3)
     7f8:	02000002 	andeq	r0, r0, #2
     7fc:	013d012e 	teqeq	sp, lr, lsr #2
     800:	23020000 	movwcs	r0, #8192	; 0x2000
     804:	02c70300 	sbceq	r0, r7, #0, 6
     808:	2f020000 	svccs	0x00020000
     80c:	00013d01 	andeq	r3, r1, r1, lsl #26
     810:	04230200 	strteq	r0, [r3], #-512	; 0x200
     814:	0002e203 	andeq	lr, r2, r3, lsl #4
     818:	01300200 	teqeq	r0, r0, lsl #4
     81c:	0000013d 	andeq	r0, r0, sp, lsr r1
     820:	03082302 	movweq	r2, #33538	; 0x8302
     824:	0000031e 	andeq	r0, r0, lr, lsl r3
     828:	3d013102 	stfccs	f3, [r1, #-8]
     82c:	02000001 	andeq	r0, r0, #1
     830:	48030c23 	stmdami	r3, {r0, r1, r5, sl, fp}
     834:	02000002 	andeq	r0, r0, #2
     838:	013d0132 	teqeq	sp, r2, lsr r1
     83c:	23020000 	movwcs	r0, #8192	; 0x2000
     840:	02410310 	subeq	r0, r1, #16, 6	; 0x40000000
     844:	33020000 	movwcc	r0, #8192	; 0x2000
     848:	00013d01 	andeq	r3, r1, r1, lsl #26
     84c:	14230200 	strtne	r0, [r3], #-512	; 0x200
     850:	00028103 	andeq	r8, r2, r3, lsl #2
     854:	01340200 	teqeq	r4, r0, lsl #4
     858:	0000013d 	andeq	r0, r0, sp, lsr r1
     85c:	03182302 	tsteq	r8, #134217728	; 0x8000000
     860:	0000024f 	andeq	r0, r0, pc, asr #4
     864:	3d013502 	cfstr32cc	mvfx3, [r1, #-8]
     868:	02000001 	andeq	r0, r0, #1
     86c:	ef031c23 	svc	0x00031c23
     870:	02000002 	andeq	r0, r0, #2
     874:	013d0136 	teqeq	sp, r6, lsr r1
     878:	23020000 	movwcs	r0, #8192	; 0x2000
     87c:	02ba0320 	adcseq	r0, sl, #32, 6	; 0x80000000
     880:	37020000 	strcc	r0, [r2, -r0]
     884:	00013d01 	andeq	r3, r1, r1, lsl #26
     888:	24230200 	strtcs	r0, [r3], #-512	; 0x200
     88c:	00025603 	andeq	r5, r2, r3, lsl #12
     890:	01380200 	teqeq	r8, r0, lsl #4
     894:	0000013d 	andeq	r0, r0, sp, lsr r1
     898:	03282302 	teqeq	r8, #134217728	; 0x8000000
     89c:	000002f6 	strdeq	r0, [r0], -r6
     8a0:	3d013902 	stccc	9, cr3, [r1, #-8]
     8a4:	02000001 	andeq	r0, r0, #1
     8a8:	8f032c23 	svchi	0x00032c23
     8ac:	02000002 	andeq	r0, r0, #2
     8b0:	013d013a 	teqeq	sp, sl, lsr r1
     8b4:	23020000 	movwcs	r0, #8192	; 0x2000
     8b8:	025d0330 	subseq	r0, sp, #48, 6	; 0xc0000000
     8bc:	3b020000 	blcc	808c4 <_start-0x3ff8773c>
     8c0:	00013d01 	andeq	r3, r1, r1, lsl #26
     8c4:	34230200 	strtcc	r0, [r3], #-512	; 0x200
     8c8:	0002fd03 	andeq	pc, r2, r3, lsl #26
     8cc:	013c0200 	teqeq	ip, r0, lsl #4
     8d0:	0000013d 	andeq	r0, r0, sp, lsr r1
     8d4:	03382302 	teqeq	r8, #134217728	; 0x8000000
     8d8:	00000325 	andeq	r0, r0, r5, lsr #6
     8dc:	3d013d02 	stccc	13, cr3, [r1, #-8]
     8e0:	02000001 	andeq	r0, r0, #1
     8e4:	04033c23 	streq	r3, [r3], #-3107	; 0xc23
     8e8:	02000003 	andeq	r0, r0, #3
     8ec:	013d013e 	teqeq	sp, lr, lsr r1
     8f0:	23020000 	movwcs	r0, #8192	; 0x2000
     8f4:	030b0340 	movweq	r0, #45888	; 0xb340
     8f8:	3f020000 	svccc	0x00020000
     8fc:	00013d01 	andeq	r3, r1, r1, lsl #26
     900:	44230200 	strtmi	r0, [r3], #-512	; 0x200
     904:	07040400 	streq	r0, [r4, -r0, lsl #8]
     908:	0000007e 	andeq	r0, r0, lr, ror r0
     90c:	6d777005 	ldclvs	0, cr7, [r7, #-20]!	; 0xffffffec
     910:	01400200 	mrseq	r0, (UNDEF: 96)
     914:	00000025 	andeq	r0, r0, r5, lsr #32
     918:	00021002 	andeq	r1, r2, r2
     91c:	00019602 	andeq	r9, r1, r2, lsl #12
     920:	4f430600 	svcmi	0x00430600
     924:	0102004e 	tsteq	r2, lr, asr #32
     928:	00013d02 	andeq	r3, r1, r2, lsl #26
     92c:	00230200 	eoreq	r0, r3, r0, lsl #4
     930:	54414406 	strbpl	r4, [r1], #-1030	; 0x406
     934:	02020200 	andeq	r0, r2, #0, 4
     938:	0000013d 	andeq	r0, r0, sp, lsr r1
     93c:	06042302 	streq	r2, [r4], -r2, lsl #6
     940:	00445550 	subeq	r5, r4, r0, asr r5
     944:	3d020302 	stccc	3, cr0, [r2, #-8]
     948:	02000001 	andeq	r0, r0, #1
     94c:	44060823 	strmi	r0, [r6], #-2083	; 0x823
     950:	02005652 	andeq	r5, r0, #85983232	; 0x5200000
     954:	013d0204 	teqeq	sp, r4, lsl #4
     958:	23020000 	movwcs	r0, #8192	; 0x2000
     95c:	2607000c 	strcs	r0, [r7], -ip
     960:	02000002 	andeq	r0, r0, #2
     964:	01500205 	cmpeq	r0, r5, lsl #4
     968:	28020000 	stmdacs	r2, {}	; <UNPREDICTABLE>
     96c:	42024b02 	andmi	r4, r2, #2048	; 0x800
     970:	03000002 	movweq	r0, #2
     974:	00000216 	andeq	r0, r0, r6, lsl r2
     978:	3d024c02 	stccc	12, cr4, [r2, #-8]
     97c:	02000001 	andeq	r0, r0, #1
     980:	cd030023 	stcgt	0, cr0, [r3, #-140]	; 0xffffff74
     984:	02000002 	andeq	r0, r0, #2
     988:	013d024d 	teqeq	sp, sp, asr #4
     98c:	23020000 	movwcs	r0, #8192	; 0x2000
     990:	02880304 	addeq	r0, r8, #4, 6	; 0x10000000
     994:	4e020000 	cdpmi	0, 0, cr0, cr2, cr0, {0}
     998:	00013d02 	andeq	r3, r1, r2, lsl #26
     99c:	08230200 	stmdaeq	r3!, {r9}
     9a0:	00020303 	andeq	r0, r2, r3, lsl #6
     9a4:	024f0200 	subeq	r0, pc, #0, 4
     9a8:	0000013d 	andeq	r0, r0, sp, lsr r1
     9ac:	030c2302 	movweq	r2, #49922	; 0xc302
     9b0:	00000270 	andeq	r0, r0, r0, ror r2
     9b4:	3d025002 	stccc	0, cr5, [r2, #-8]
     9b8:	02000001 	andeq	r0, r0, #1
     9bc:	0f031023 	svceq	0x00031023
     9c0:	02000002 	andeq	r0, r0, #2
     9c4:	013d0251 	teqeq	sp, r1, asr r2
     9c8:	23020000 	movwcs	r0, #8192	; 0x2000
     9cc:	022b0314 	eoreq	r0, fp, #20, 6	; 0x50000000
     9d0:	52020000 	andpl	r0, r2, #0
     9d4:	00013d02 	andeq	r3, r1, r2, lsl #26
     9d8:	18230200 	stmdane	r3!, {r9}
     9dc:	0002e703 	andeq	lr, r2, r3, lsl #14
     9e0:	02530200 	subseq	r0, r3, #0, 4
     9e4:	0000013d 	andeq	r0, r0, sp, lsr r1
     9e8:	031c2302 	tsteq	ip, #134217728	; 0x8000000
     9ec:	0000021d 	andeq	r0, r0, sp, lsl r2
     9f0:	3d025402 	cfstrscc	mvf5, [r2, #-8]
     9f4:	02000001 	andeq	r0, r0, #1
     9f8:	d4032023 	strle	r2, [r3], #-35	; 0x23
     9fc:	02000002 	andeq	r0, r0, #2
     a00:	013d0255 	teqeq	sp, r5, asr r2
     a04:	23020000 	movwcs	r0, #8192	; 0x2000
     a08:	64070024 	strvs	r0, [r7], #-36	; 0x24
     a0c:	02000002 	andeq	r0, r0, #2
     a10:	01a20256 			; <UNDEFINED> instruction: 0x01a20256
     a14:	14020000 	strne	r0, [r2], #-0
     a18:	a302b502 	movwge	fp, #9474	; 0x2502
     a1c:	03000002 	movweq	r0, #2
     a20:	00000233 	andeq	r0, r0, r3, lsr r2
     a24:	3d02b602 	stccc	6, cr11, [r2, #-8]
     a28:	02000001 	andeq	r0, r0, #1
     a2c:	96030023 	strls	r0, [r3], -r3, lsr #32
     a30:	02000002 	andeq	r0, r0, #2
     a34:	013d02b7 			; <UNDEFINED> instruction: 0x013d02b7
     a38:	23020000 	movwcs	r0, #8192	; 0x2000
     a3c:	029f0304 	addseq	r0, pc, #4, 6	; 0x10000000
     a40:	b8020000 	stmdalt	r2, {}	; <UNPREDICTABLE>
     a44:	00013d02 	andeq	r3, r1, r2, lsl #26
     a48:	08230200 	stmdaeq	r3!, {r9}
     a4c:	0002a803 	andeq	sl, r2, r3, lsl #16
     a50:	02b90200 	adcseq	r0, r9, #0, 4
     a54:	0000013d 	andeq	r0, r0, sp, lsr r1
     a58:	030c2302 	movweq	r2, #49922	; 0xc302
     a5c:	000002b1 			; <UNDEFINED> instruction: 0x000002b1
     a60:	3d02ba02 	vstrcc	s22, [r2, #-8]
     a64:	02000001 	andeq	r0, r0, #1
     a68:	07001023 	streq	r1, [r0, -r3, lsr #32]
     a6c:	0000020a 	andeq	r0, r0, sl, lsl #4
     a70:	4e02bb02 	vmlami.f64	d11, d2, d2
     a74:	08000002 	stmdaeq	r0, {r1}
     a78:	00026901 	andeq	r6, r2, r1, lsl #18
     a7c:	01020100 	mrseq	r0, (UNDEF: 18)
     a80:	40009520 	andmi	r9, r0, r0, lsr #10
     a84:	40009624 	andmi	r9, r0, r4, lsr #12
     a88:	00000228 	andeq	r0, r0, r8, lsr #4
     a8c:	000002f0 	strdeq	r0, [r0], -r0	; <UNPREDICTABLE>
     a90:	00031609 	andeq	r1, r3, r9, lsl #12
     a94:	f0050100 			; <UNDEFINED> instruction: 0xf0050100
     a98:	02000002 	andeq	r0, r0, #2
     a9c:	5c0a7491 	cfstrspl	mvf7, [sl], {145}	; 0x91
     aa0:	e0400095 	umaal	r0, r0, r5, r0
     aa4:	0b400095 	bleq	1000d00 <_start-0x3f007300>
     aa8:	00014201 	andeq	r4, r1, r1, lsl #4
     aac:	f00c0100 			; <UNDEFINED> instruction: 0xf00c0100
     ab0:	01000002 	tsteq	r0, r2
     ab4:	0000000c 	andeq	r0, r0, ip
     ab8:	6905040d 	stmdbvs	r5, {r0, r2, r3, sl}
     abc:	0000746e 	andeq	r7, r0, lr, ror #8
     ac0:	0000069e 	muleq	r0, lr, r6
     ac4:	02f20002 	rscseq	r0, r2, #2
     ac8:	01040000 	mrseq	r0, (UNDEF: 4)
     acc:	0000006d 	andeq	r0, r0, sp, rrx
     ad0:	0004ad01 	andeq	sl, r4, r1, lsl #26
     ad4:	0000f200 	andeq	pc, r0, r0, lsl #4
     ad8:	00962400 	addseq	r2, r6, r0, lsl #8
     adc:	00972440 	addseq	r2, r7, r0, asr #8
     ae0:	00048e40 	andeq	r8, r4, r0, asr #28
     ae4:	07040200 	streq	r0, [r4, -r0, lsl #4]
     ae8:	0000007e 	andeq	r0, r0, lr, ror r0
     aec:	00021003 	andeq	r1, r2, r3
     af0:	00007202 	andeq	r7, r0, r2, lsl #4
     af4:	4f430400 	svcmi	0x00430400
     af8:	0102004e 	tsteq	r2, lr, asr #32
     afc:	00002502 	andeq	r2, r0, r2, lsl #10
     b00:	00230200 	eoreq	r0, r3, r0, lsl #4
     b04:	54414404 	strbpl	r4, [r1], #-1028	; 0x404
     b08:	02020200 	andeq	r0, r2, #0, 4
     b0c:	00000025 	andeq	r0, r0, r5, lsr #32
     b10:	04042302 	streq	r2, [r4], #-770	; 0x302
     b14:	00445550 	subeq	r5, r4, r0, asr r5
     b18:	25020302 	strcs	r0, [r2, #-770]	; 0x302
     b1c:	02000000 	andeq	r0, r0, #0
     b20:	44040823 	strmi	r0, [r4], #-2083	; 0x823
     b24:	02005652 	andeq	r5, r0, #85983232	; 0x5200000
     b28:	00250204 	eoreq	r0, r5, r4, lsl #4
     b2c:	23020000 	movwcs	r0, #8192	; 0x2000
     b30:	2605000c 	strcs	r0, [r5], -ip
     b34:	02000002 	andeq	r0, r0, #2
     b38:	002c0205 	eoreq	r0, ip, r5, lsl #4
     b3c:	28030000 	stmdacs	r3, {}	; <UNPREDICTABLE>
     b40:	1e024b02 	vmlane.f64	d4, d2, d2
     b44:	06000001 	streq	r0, [r0], -r1
     b48:	00000216 	andeq	r0, r0, r6, lsl r2
     b4c:	25024c02 	strcs	r4, [r2, #-3074]	; 0xc02
     b50:	02000000 	andeq	r0, r0, #0
     b54:	cd060023 	stcgt	0, cr0, [r6, #-140]	; 0xffffff74
     b58:	02000002 	andeq	r0, r0, #2
     b5c:	0025024d 	eoreq	r0, r5, sp, asr #4
     b60:	23020000 	movwcs	r0, #8192	; 0x2000
     b64:	02880604 	addeq	r0, r8, #4, 12	; 0x400000
     b68:	4e020000 	cdpmi	0, 0, cr0, cr2, cr0, {0}
     b6c:	00002502 	andeq	r2, r0, r2, lsl #10
     b70:	08230200 	stmdaeq	r3!, {r9}
     b74:	00020306 	andeq	r0, r2, r6, lsl #6
     b78:	024f0200 	subeq	r0, pc, #0, 4
     b7c:	00000025 	andeq	r0, r0, r5, lsr #32
     b80:	060c2302 	streq	r2, [ip], -r2, lsl #6
     b84:	00000270 	andeq	r0, r0, r0, ror r2
     b88:	25025002 	strcs	r5, [r2, #-2]
     b8c:	02000000 	andeq	r0, r0, #0
     b90:	0f061023 	svceq	0x00061023
     b94:	02000002 	andeq	r0, r0, #2
     b98:	00250251 	eoreq	r0, r5, r1, asr r2
     b9c:	23020000 	movwcs	r0, #8192	; 0x2000
     ba0:	022b0614 	eoreq	r0, fp, #20, 12	; 0x1400000
     ba4:	52020000 	andpl	r0, r2, #0
     ba8:	00002502 	andeq	r2, r0, r2, lsl #10
     bac:	18230200 	stmdane	r3!, {r9}
     bb0:	0002e706 	andeq	lr, r2, r6, lsl #14
     bb4:	02530200 	subseq	r0, r3, #0, 4
     bb8:	00000025 	andeq	r0, r0, r5, lsr #32
     bbc:	061c2302 	ldreq	r2, [ip], -r2, lsl #6
     bc0:	0000021d 	andeq	r0, r0, sp, lsl r2
     bc4:	25025402 	strcs	r5, [r2, #-1026]	; 0x402
     bc8:	02000000 	andeq	r0, r0, #0
     bcc:	d4062023 	strle	r2, [r6], #-35	; 0x23
     bd0:	02000002 	andeq	r0, r0, #2
     bd4:	00250255 	eoreq	r0, r5, r5, asr r2
     bd8:	23020000 	movwcs	r0, #8192	; 0x2000
     bdc:	64050024 	strvs	r0, [r5], #-36	; 0x24
     be0:	02000002 	andeq	r0, r0, #2
     be4:	007e0256 	rsbseq	r0, lr, r6, asr r2
     be8:	14030000 	strne	r0, [r3], #-0
     bec:	7f029702 	svcvc	0x00029702
     bf0:	06000001 	streq	r0, [r0], -r1
     bf4:	00000634 	andeq	r0, r0, r4, lsr r6
     bf8:	25029802 	strcs	r9, [r2, #-2050]	; 0x802
     bfc:	02000000 	andeq	r0, r0, #0
     c00:	62060023 	andvs	r0, r6, #35	; 0x23
     c04:	02000006 	andeq	r0, r0, #6
     c08:	00250299 	mlaeq	r5, r9, r2, r0
     c0c:	23020000 	movwcs	r0, #8192	; 0x2000
     c10:	066b0604 	strbteq	r0, [fp], -r4, lsl #12
     c14:	9a020000 	bls	80c1c <_start-0x3ff873e4>
     c18:	00002502 	andeq	r2, r0, r2, lsl #10
     c1c:	08230200 	stmdaeq	r3!, {r9}
     c20:	00067406 	andeq	r7, r6, r6, lsl #8
     c24:	029b0200 	addseq	r0, fp, #0, 4
     c28:	00000025 	andeq	r0, r0, r5, lsr #32
     c2c:	060c2302 	streq	r2, [ip], -r2, lsl #6
     c30:	00000582 	andeq	r0, r0, r2, lsl #11
     c34:	25029c02 	strcs	r9, [r2, #-3074]	; 0xc02
     c38:	02000000 	andeq	r0, r0, #0
     c3c:	05001023 	streq	r1, [r0, #-35]	; 0x23
     c40:	000006ae 	andeq	r0, r0, lr, lsr #13
     c44:	2a029d02 	bcs	a8054 <_start-0x3ff5ffac>
     c48:	03000001 	movweq	r0, #1
     c4c:	02c902a0 	sbceq	r0, r9, #160, 4
     c50:	000003f5 	strdeq	r0, [r0], -r5
     c54:	00058b06 	andeq	r8, r5, r6, lsl #22
     c58:	02ca0200 	sbceq	r0, sl, #0, 4
     c5c:	00000025 	andeq	r0, r0, r5, lsr #32
     c60:	06002302 	streq	r2, [r0], -r2, lsl #6
     c64:	000006a1 	andeq	r0, r0, r1, lsr #13
     c68:	2502cb02 	strcs	ip, [r2, #-2818]	; 0xb02
     c6c:	02000000 	andeq	r0, r0, #0
     c70:	b4060423 	strlt	r0, [r6], #-1059	; 0x423
     c74:	02000003 	andeq	r0, r0, #3
     c78:	002502cc 	eoreq	r0, r5, ip, asr #5
     c7c:	23020000 	movwcs	r0, #8192	; 0x2000
     c80:	05750608 	ldrbeq	r0, [r5, #-1544]!	; 0x608
     c84:	cd020000 	stcgt	0, cr0, [r2, #-0]
     c88:	00002502 	andeq	r2, r0, r2, lsl #10
     c8c:	0c230200 	sfmeq	f0, 4, [r3], #-0
     c90:	0003a706 	andeq	sl, r3, r6, lsl #14
     c94:	02ce0200 	sbceq	r0, lr, #0, 4
     c98:	00000025 	andeq	r0, r0, r5, lsr #32
     c9c:	06102302 	ldreq	r2, [r0], -r2, lsl #6
     ca0:	000004c7 	andeq	r0, r0, r7, asr #9
     ca4:	2502cf02 	strcs	ip, [r2, #-3842]	; 0xf02
     ca8:	02000000 	andeq	r0, r0, #0
     cac:	5a061423 	bpl	185d40 <_start-0x3fe822c0>
     cb0:	02000005 	andeq	r0, r0, #5
     cb4:	002502d0 	ldrdeq	r0, [r5], -r0	; <UNPREDICTABLE>
     cb8:	23020000 	movwcs	r0, #8192	; 0x2000
     cbc:	04800618 	streq	r0, [r0], #1560	; 0x618
     cc0:	d1020000 	mrsle	r0, (UNDEF: 2)
     cc4:	00002502 	andeq	r2, r0, r2, lsl #10
     cc8:	1c230200 	sfmne	f0, 4, [r3], #-0
     ccc:	00065a06 	andeq	r5, r6, r6, lsl #20
     cd0:	02d20200 	sbcseq	r0, r2, #0, 4
     cd4:	00000025 	andeq	r0, r0, r5, lsr #32
     cd8:	06202302 	strteq	r2, [r0], -r2, lsl #6
     cdc:	00000699 	muleq	r0, r9, r6
     ce0:	2502d302 	strcs	sp, [r2, #-770]	; 0x302
     ce4:	02000000 	andeq	r0, r0, #0
     ce8:	a6062423 	strge	r2, [r6], -r3, lsr #8
     cec:	02000005 	andeq	r0, r0, #5
     cf0:	002502d4 	ldrdeq	r0, [r5], -r4	; <UNPREDICTABLE>
     cf4:	23020000 	movwcs	r0, #8192	; 0x2000
     cf8:	05af0628 	streq	r0, [pc, #1576]!	; 1328 <_start-0x40006cd8>
     cfc:	d5020000 	strle	r0, [r2, #-0]
     d00:	00002502 	andeq	r2, r0, r2, lsl #10
     d04:	2c230200 	sfmcs	f0, 4, [r3], #-0
     d08:	0005b806 	andeq	fp, r5, r6, lsl #16
     d0c:	02d60200 	sbcseq	r0, r6, #0, 4
     d10:	00000025 	andeq	r0, r0, r5, lsr #32
     d14:	06302302 	ldrteq	r2, [r0], -r2, lsl #6
     d18:	000005c1 	andeq	r0, r0, r1, asr #11
     d1c:	2502d702 	strcs	sp, [r2, #-1794]	; 0x702
     d20:	02000000 	andeq	r0, r0, #0
     d24:	ca063423 	bgt	18ddb8 <_start-0x3fe7a248>
     d28:	02000005 	andeq	r0, r0, #5
     d2c:	002502d8 	ldrdeq	r0, [r5], -r8	; <UNPREDICTABLE>
     d30:	23020000 	movwcs	r0, #8192	; 0x2000
     d34:	035f0638 	cmpeq	pc, #56, 12	; 0x3800000
     d38:	d9020000 	stmdble	r2, {}	; <UNPREDICTABLE>
     d3c:	00002502 	andeq	r2, r0, r2, lsl #10
     d40:	3c230200 	sfmcc	f0, 4, [r3], #-0
     d44:	0005d306 	andeq	sp, r5, r6, lsl #6
     d48:	02da0200 	sbcseq	r0, sl, #0, 4
     d4c:	00000025 	andeq	r0, r0, r5, lsr #32
     d50:	06402302 	strbeq	r2, [r0], -r2, lsl #6
     d54:	000005dc 	ldrdeq	r0, [r0], -ip
     d58:	2502db02 	strcs	sp, [r2, #-2818]	; 0xb02
     d5c:	02000000 	andeq	r0, r0, #0
     d60:	e5064423 	str	r4, [r6, #-1059]	; 0x423
     d64:	02000005 	andeq	r0, r0, #5
     d68:	002502dc 	ldrdeq	r0, [r5], -ip	; <UNPREDICTABLE>
     d6c:	23020000 	movwcs	r0, #8192	; 0x2000
     d70:	05240648 	streq	r0, [r4, #-1608]!	; 0x648
     d74:	dd020000 	stcle	0, cr0, [r2, #-0]
     d78:	00002502 	andeq	r2, r0, r2, lsl #10
     d7c:	4c230200 	sfmmi	f0, 4, [r3], #-0
     d80:	00032c06 	andeq	r2, r3, r6, lsl #24
     d84:	02de0200 	sbcseq	r0, lr, #0, 4
     d88:	00000025 	andeq	r0, r0, r5, lsr #32
     d8c:	06502302 	ldrbeq	r2, [r0], -r2, lsl #6
     d90:	00000335 	andeq	r0, r0, r5, lsr r3
     d94:	2502df02 	strcs	sp, [r2, #-3842]	; 0xf02
     d98:	02000000 	andeq	r0, r0, #0
     d9c:	3e065423 	cdpcc	4, 0, cr5, cr6, cr3, {1}
     da0:	02000003 	andeq	r0, r0, #3
     da4:	002502e0 	eoreq	r0, r5, r0, ror #5
     da8:	23020000 	movwcs	r0, #8192	; 0x2000
     dac:	03470658 	movteq	r0, #30296	; 0x7658
     db0:	e1020000 	mrs	r0, (UNDEF: 2)
     db4:	00002502 	andeq	r2, r0, r2, lsl #10
     db8:	5c230200 	sfmpl	f0, 4, [r3], #-0
     dbc:	00038306 	andeq	r8, r3, r6, lsl #6
     dc0:	02e20200 	rsceq	r0, r2, #0, 4
     dc4:	00000025 	andeq	r0, r0, r5, lsr #32
     dc8:	06602302 	strbteq	r2, [r0], -r2, lsl #6
     dcc:	0000038c 	andeq	r0, r0, ip, lsl #7
     dd0:	2502e302 	strcs	lr, [r2, #-770]	; 0x302
     dd4:	02000000 	andeq	r0, r0, #0
     dd8:	95066423 	strls	r6, [r6, #-1059]	; 0x423
     ddc:	02000003 	andeq	r0, r0, #3
     de0:	002502e4 	eoreq	r0, r5, r4, ror #5
     de4:	23020000 	movwcs	r0, #8192	; 0x2000
     de8:	03680668 	cmneq	r8, #104, 12	; 0x6800000
     dec:	e5020000 	str	r0, [r2, #-0]
     df0:	00002502 	andeq	r2, r0, r2, lsl #10
     df4:	6c230200 	sfmvs	f0, 4, [r3], #-0
     df8:	00037106 	andeq	r7, r3, r6, lsl #2
     dfc:	02e60200 	rsceq	r0, r6, #0, 4
     e00:	00000025 	andeq	r0, r0, r5, lsr #32
     e04:	06702302 	ldrbteq	r2, [r0], -r2, lsl #6
     e08:	0000037a 	andeq	r0, r0, sl, ror r3
     e0c:	2502e702 	strcs	lr, [r2, #-1794]	; 0x702
     e10:	02000000 	andeq	r0, r0, #0
     e14:	2d067423 	cfstrscs	mvf7, [r6, #-140]	; 0xffffff74
     e18:	02000005 	andeq	r0, r0, #5
     e1c:	002502e8 	eoreq	r0, r5, r8, ror #5
     e20:	23020000 	movwcs	r0, #8192	; 0x2000
     e24:	039e0678 	orrseq	r0, lr, #120, 12	; 0x7800000
     e28:	e9020000 	stmdb	r2, {}	; <UNPREDICTABLE>
     e2c:	00002502 	andeq	r2, r0, r2, lsl #10
     e30:	7c230200 	sfmvc	f0, 4, [r3], #-0
     e34:	00043306 	andeq	r3, r4, r6, lsl #6
     e38:	02ea0200 	rsceq	r0, sl, #0, 4
     e3c:	00000025 	andeq	r0, r0, r5, lsr #32
     e40:	01802303 	orreq	r2, r0, r3, lsl #6
     e44:	00043c06 	andeq	r3, r4, r6, lsl #24
     e48:	02eb0200 	rsceq	r0, fp, #0, 4
     e4c:	00000025 	andeq	r0, r0, r5, lsr #32
     e50:	01842303 	orreq	r2, r4, r3, lsl #6
     e54:	00044506 	andeq	r4, r4, r6, lsl #10
     e58:	02ec0200 	rsceq	r0, ip, #0, 4
     e5c:	00000025 	andeq	r0, r0, r5, lsr #32
     e60:	01882303 	orreq	r2, r8, r3, lsl #6
     e64:	00044e06 	andeq	r4, r4, r6, lsl #28
     e68:	02ed0200 	rsceq	r0, sp, #0, 4
     e6c:	00000025 	andeq	r0, r0, r5, lsr #32
     e70:	018c2303 	orreq	r2, ip, r3, lsl #6
     e74:	00045706 	andeq	r5, r4, r6, lsl #14
     e78:	02ee0200 	rsceq	r0, lr, #0, 4
     e7c:	00000025 	andeq	r0, r0, r5, lsr #32
     e80:	01902303 	orrseq	r2, r0, r3, lsl #6
     e84:	00046006 	andeq	r6, r4, r6
     e88:	02ef0200 	rsceq	r0, pc, #0, 4
     e8c:	00000025 	andeq	r0, r0, r5, lsr #32
     e90:	01942303 	orrseq	r2, r4, r3, lsl #6
     e94:	00046906 	andeq	r6, r4, r6, lsl #18
     e98:	02f00200 	rscseq	r0, r0, #0, 4
     e9c:	00000025 	andeq	r0, r0, r5, lsr #32
     ea0:	01982303 	orrseq	r2, r8, r3, lsl #6
     ea4:	00054406 	andeq	r4, r5, r6, lsl #8
     ea8:	02f10200 	rscseq	r0, r1, #0, 4
     eac:	00000025 	andeq	r0, r0, r5, lsr #32
     eb0:	019c2303 	orrseq	r2, ip, r3, lsl #6
     eb4:	70690700 	rsbvc	r0, r9, r0, lsl #14
     eb8:	f2020072 	vqadd.s8	q0, q1, q9
     ebc:	00018b02 	andeq	r8, r1, r2, lsl #22
     ec0:	02a00300 	adceq	r0, r0, #0, 6
     ec4:	066b02f6 			; <UNDEFINED> instruction: 0x066b02f6
     ec8:	7d060000 	stcvc	0, cr0, [r6, #-0]
     ecc:	02000006 	andeq	r0, r0, #6
     ed0:	002502f7 	strdeq	r0, [r5], -r7	; <UNPREDICTABLE>
     ed4:	23020000 	movwcs	r0, #8192	; 0x2000
     ed8:	068b0600 	streq	r0, [fp], r0, lsl #12
     edc:	f8020000 			; <UNDEFINED> instruction: 0xf8020000
     ee0:	00002502 	andeq	r2, r0, r2, lsl #10
     ee4:	04230200 	strteq	r0, [r3], #-512	; 0x200
     ee8:	00053606 	andeq	r3, r5, r6, lsl #12
     eec:	02f90200 	rscseq	r0, r9, #0, 4
     ef0:	00000025 	andeq	r0, r0, r5, lsr #32
     ef4:	06082302 	streq	r2, [r8], -r2, lsl #6
     ef8:	00000567 	andeq	r0, r0, r7, ror #10
     efc:	2502fa02 	strcs	pc, [r2, #-2562]	; 0xa02
     f00:	02000000 	andeq	r0, r0, #0
     f04:	98060c23 	stmdals	r6, {r0, r1, r5, sl, fp}
     f08:	02000005 	andeq	r0, r0, #5
     f0c:	002502fb 	strdeq	r0, [r5], -fp	; <UNPREDICTABLE>
     f10:	23020000 	movwcs	r0, #8192	; 0x2000
     f14:	048d0610 	streq	r0, [sp], #1552	; 0x610
     f18:	fc020000 	stc2	0, cr0, [r2], {-0}
     f1c:	00002502 	andeq	r2, r0, r2, lsl #10
     f20:	14230200 	strtne	r0, [r3], #-512	; 0x200
     f24:	00064c06 	andeq	r4, r6, r6, lsl #24
     f28:	02fd0200 	rscseq	r0, sp, #0, 4
     f2c:	00000025 	andeq	r0, r0, r5, lsr #32
     f30:	06182302 	ldreq	r2, [r8], -r2, lsl #6
     f34:	00000472 	andeq	r0, r0, r2, ror r4
     f38:	2502fe02 	strcs	pc, [r2, #-3586]	; 0xe02
     f3c:	02000000 	andeq	r0, r0, #0
     f40:	9b061c23 	blls	187fd4 <_start-0x3fe8002c>
     f44:	02000004 	andeq	r0, r0, #4
     f48:	002502ff 	strdeq	r0, [r5], -pc	; <UNPREDICTABLE>
     f4c:	23020000 	movwcs	r0, #8192	; 0x2000
     f50:	04a40620 	strteq	r0, [r4], #1568	; 0x620
     f54:	00020000 	andeq	r0, r2, r0
     f58:	00002503 	andeq	r2, r0, r3, lsl #10
     f5c:	24230200 	strtcs	r0, [r3], #-512	; 0x200
     f60:	0003cf06 	andeq	ip, r3, r6, lsl #30
     f64:	03010200 	movweq	r0, #4608	; 0x1200
     f68:	00000025 	andeq	r0, r0, r5, lsr #32
     f6c:	06282302 	strteq	r2, [r8], -r2, lsl #6
     f70:	000003d9 	ldrdeq	r0, [r0], -r9
     f74:	25030202 	strcs	r0, [r3, #-514]	; 0x202
     f78:	02000000 	andeq	r0, r0, #0
     f7c:	e3062c23 	movw	r2, #27683	; 0x6c23
     f80:	02000003 	andeq	r0, r0, #3
     f84:	00250303 	eoreq	r0, r5, r3, lsl #6
     f88:	23020000 	movwcs	r0, #8192	; 0x2000
     f8c:	03ed0630 	mvneq	r0, #48, 12	; 0x3000000
     f90:	04020000 	streq	r0, [r2], #-0
     f94:	00002503 	andeq	r2, r0, r3, lsl #10
     f98:	34230200 	strtcc	r0, [r3], #-512	; 0x200
     f9c:	0003f706 	andeq	pc, r3, r6, lsl #14
     fa0:	03050200 	movweq	r0, #20992	; 0x5200
     fa4:	00000025 	andeq	r0, r0, r5, lsr #32
     fa8:	06382302 	ldrteq	r2, [r8], -r2, lsl #6
     fac:	00000401 	andeq	r0, r0, r1, lsl #8
     fb0:	25030602 	strcs	r0, [r3, #-1538]	; 0x602
     fb4:	02000000 	andeq	r0, r0, #0
     fb8:	0b063c23 	bleq	19004c <_start-0x3fe77fb4>
     fbc:	02000004 	andeq	r0, r0, #4
     fc0:	00250307 	eoreq	r0, r5, r7, lsl #6
     fc4:	23020000 	movwcs	r0, #8192	; 0x2000
     fc8:	04150640 	ldreq	r0, [r5], #-1600	; 0x640
     fcc:	08020000 	stmdaeq	r2, {}	; <UNPREDICTABLE>
     fd0:	00002503 	andeq	r2, r0, r3, lsl #10
     fd4:	44230200 	strtmi	r0, [r3], #-512	; 0x200
     fd8:	00041f06 	andeq	r1, r4, r6, lsl #30
     fdc:	03090200 	movweq	r0, #37376	; 0x9200
     fe0:	00000025 	andeq	r0, r0, r5, lsr #32
     fe4:	06482302 	strbeq	r2, [r8], -r2, lsl #6
     fe8:	00000429 	andeq	r0, r0, r9, lsr #8
     fec:	25030a02 	strcs	r0, [r3, #-2562]	; 0xa02
     ff0:	02000000 	andeq	r0, r0, #0
     ff4:	b3064c23 	movwlt	r4, #27683	; 0x6c23
     ff8:	02000004 	andeq	r0, r0, #4
     ffc:	0025030b 	eoreq	r0, r5, fp, lsl #6
    1000:	23020000 	movwcs	r0, #8192	; 0x2000
    1004:	04d40650 	ldrbeq	r0, [r4], #1616	; 0x650
    1008:	0c020000 	stceq	0, cr0, [r2], {-0}
    100c:	00002503 	andeq	r2, r0, r3, lsl #10
    1010:	54230200 	strtpl	r0, [r3], #-512	; 0x200
    1014:	0004bd06 	andeq	fp, r4, r6, lsl #26
    1018:	030d0200 	movweq	r0, #53760	; 0xd200
    101c:	00000025 	andeq	r0, r0, r5, lsr #32
    1020:	06582302 	ldrbeq	r2, [r8], -r2, lsl #6
    1024:	000004de 	ldrdeq	r0, [r0], -lr
    1028:	25030e02 	strcs	r0, [r3, #-3586]	; 0xe02
    102c:	02000000 	andeq	r0, r0, #0
    1030:	e8065c23 	stmda	r6, {r0, r1, r5, sl, fp, ip, lr}
    1034:	02000004 	andeq	r0, r0, #4
    1038:	0025030f 	eoreq	r0, r5, pc, lsl #6
    103c:	23020000 	movwcs	r0, #8192	; 0x2000
    1040:	04f20660 	ldrbteq	r0, [r2], #1632	; 0x660
    1044:	10020000 	andne	r0, r2, r0
    1048:	00002503 	andeq	r2, r0, r3, lsl #10
    104c:	64230200 	strtvs	r0, [r3], #-512	; 0x200
    1050:	0004fc06 	andeq	pc, r4, r6, lsl #24
    1054:	03110200 	tsteq	r1, #0, 4
    1058:	00000025 	andeq	r0, r0, r5, lsr #32
    105c:	06682302 	strbteq	r2, [r8], -r2, lsl #6
    1060:	00000506 	andeq	r0, r0, r6, lsl #10
    1064:	25031202 	strcs	r1, [r3, #-514]	; 0x202
    1068:	02000000 	andeq	r0, r0, #0
    106c:	10066c23 	andne	r6, r6, r3, lsr #24
    1070:	02000005 	andeq	r0, r0, #5
    1074:	00250313 	eoreq	r0, r5, r3, lsl r3
    1078:	23020000 	movwcs	r0, #8192	; 0x2000
    107c:	051a0670 	ldreq	r0, [sl, #-1648]	; 0x670
    1080:	14020000 	strne	r0, [r2], #-0
    1084:	00002503 	andeq	r2, r0, r3, lsl #10
    1088:	74230200 	strtvc	r0, [r3], #-512	; 0x200
    108c:	0005ee06 	andeq	lr, r5, r6, lsl #28
    1090:	03150200 	tsteq	r5, #0, 4
    1094:	00000025 	andeq	r0, r0, r5, lsr #32
    1098:	06782302 	ldrbteq	r2, [r8], -r2, lsl #6
    109c:	000006b3 			; <UNDEFINED> instruction: 0x000006b3
    10a0:	25031602 	strcs	r1, [r3, #-1538]	; 0x602
    10a4:	02000000 	andeq	r0, r0, #0
    10a8:	f8067c23 			; <UNDEFINED> instruction: 0xf8067c23
    10ac:	02000005 	andeq	r0, r0, #5
    10b0:	00250317 	eoreq	r0, r5, r7, lsl r3
    10b4:	23030000 	movwcs	r0, #12288	; 0x3000
    10b8:	02060180 	andeq	r0, r6, #128, 2
    10bc:	02000006 	andeq	r0, r0, #6
    10c0:	00250318 	eoreq	r0, r5, r8, lsl r3
    10c4:	23030000 	movwcs	r0, #12288	; 0x3000
    10c8:	0c060184 	stfeqs	f0, [r6], {132}	; 0x84
    10cc:	02000006 	andeq	r0, r0, #6
    10d0:	00250319 	eoreq	r0, r5, r9, lsl r3
    10d4:	23030000 	movwcs	r0, #12288	; 0x3000
    10d8:	16060188 	strne	r0, [r6], -r8, lsl #3
    10dc:	02000006 	andeq	r0, r0, #6
    10e0:	0025031a 	eoreq	r0, r5, sl, lsl r3
    10e4:	23030000 	movwcs	r0, #12288	; 0x3000
    10e8:	2006018c 	andcs	r0, r6, ip, lsl #3
    10ec:	02000006 	andeq	r0, r0, #6
    10f0:	0025031b 	eoreq	r0, r5, fp, lsl r3
    10f4:	23030000 	movwcs	r0, #12288	; 0x3000
    10f8:	2a060190 	bcs	181740 <_start-0x3fe868c0>
    10fc:	02000006 	andeq	r0, r0, #6
    1100:	0025031c 	eoreq	r0, r5, ip, lsl r3
    1104:	23030000 	movwcs	r0, #12288	; 0x3000
    1108:	50060194 	mulpl	r6, r4, r1
    110c:	02000003 	andeq	r0, r0, #3
    1110:	0025031d 	eoreq	r0, r5, sp, lsl r3
    1114:	23030000 	movwcs	r0, #12288	; 0x3000
    1118:	42060198 	andmi	r0, r6, #152, 2	; 0x26
    111c:	02000006 	andeq	r0, r0, #6
    1120:	0025031e 	eoreq	r0, r5, lr, lsl r3
    1124:	23030000 	movwcs	r0, #12288	; 0x3000
    1128:	0500019c 	streq	r0, [r0, #-412]	; 0x19c
    112c:	0000035a 	andeq	r0, r0, sl, asr r3
    1130:	01031f02 	tsteq	r3, r2, lsl #30
    1134:	08000004 	stmdaeq	r0, {r2}
    1138:	0003c101 	andeq	ip, r3, r1, lsl #2
    113c:	01020100 	mrseq	r0, (UNDEF: 18)
    1140:	40009624 	andmi	r9, r0, r4, lsr #12
    1144:	40009684 	andmi	r9, r0, r4, lsl #13
    1148:	00000254 	andeq	r0, r0, r4, asr r2
    114c:	054d0108 	strbeq	r0, [sp, #-264]	; 0x108
    1150:	0c010000 	stceq	0, cr0, [r1], {-0}
    1154:	00968401 	addseq	r8, r6, r1, lsl #8
    1158:	00972440 	addseq	r2, r7, r0, asr #8
    115c:	00028040 	andeq	r8, r2, r0, asr #32
    1160:	00d90000 	sbcseq	r0, r9, r0
    1164:	00020000 	andeq	r0, r2, r0
    1168:	0000036b 	andeq	r0, r0, fp, ror #6
    116c:	006d0104 	rsbeq	r0, sp, r4, lsl #2
    1170:	bd010000 	stclt	0, cr0, [r1, #-0]
    1174:	f2000006 	vhadd.s8	d0, d0, d6
    1178:	24000000 	strcs	r0, [r0], #-0
    117c:	dc400097 	mcrrle	0, 9, r0, r0, cr7
    1180:	ef400097 	svc	0x00400097
    1184:	02000004 	andeq	r0, r0, #4
    1188:	007e0704 	rsbseq	r0, lr, r4, lsl #14
    118c:	10030000 	andne	r0, r3, r0
    1190:	72020002 	andvc	r0, r2, #2
    1194:	04000000 	streq	r0, [r0], #-0
    1198:	004e4f43 	subeq	r4, lr, r3, asr #30
    119c:	25020102 	strcs	r0, [r2, #-258]	; 0x102
    11a0:	02000000 	andeq	r0, r0, #0
    11a4:	44040023 	strmi	r0, [r4], #-35	; 0x23
    11a8:	02005441 	andeq	r5, r0, #1090519040	; 0x41000000
    11ac:	00250202 	eoreq	r0, r5, r2, lsl #4
    11b0:	23020000 	movwcs	r0, #8192	; 0x2000
    11b4:	55500404 	ldrbpl	r0, [r0, #-1028]	; 0x404
    11b8:	03020044 	movweq	r0, #8260	; 0x2044
    11bc:	00002502 	andeq	r2, r0, r2, lsl #10
    11c0:	08230200 	stmdaeq	r3!, {r9}
    11c4:	56524404 	ldrbpl	r4, [r2], -r4, lsl #8
    11c8:	02040200 	andeq	r0, r4, #0, 4
    11cc:	00000025 	andeq	r0, r0, r5, lsr #32
    11d0:	000c2302 	andeq	r2, ip, r2, lsl #6
    11d4:	00022605 	andeq	r2, r2, r5, lsl #12
    11d8:	02050200 	andeq	r0, r5, #0, 4
    11dc:	0000002c 	andeq	r0, r0, ip, lsr #32
    11e0:	06c90106 	strbeq	r0, [r9], r6, lsl #2
    11e4:	03010000 	movweq	r0, #4096	; 0x1000
    11e8:	00972401 	addseq	r2, r7, r1, lsl #8
    11ec:	0097a440 	addseq	sl, r7, r0, asr #8
    11f0:	0002ac40 	andeq	sl, r2, r0, asr #24
    11f4:	0000bd00 	andeq	fp, r0, r0, lsl #26
    11f8:	6d6d0700 	stclvs	7, cr0, [sp, #-0]
    11fc:	25030100 	strcs	r0, [r3, #-256]	; 0x100
    1200:	02000000 	andeq	r0, r0, #0
    1204:	69087091 	stmdbvs	r8, {r0, r4, r7, ip, sp, lr}
    1208:	bd050100 	stflts	f0, [r5, #-0]
    120c:	02000000 	andeq	r0, r0, #0
    1210:	6a087891 	bvs	21f45c <_start-0x3fde8ba4>
    1214:	bd050100 	stflts	f0, [r5, #-0]
    1218:	02000000 	andeq	r0, r0, #0
    121c:	09007491 	stmdbeq	r0, {r0, r4, r7, sl, ip, sp, lr}
    1220:	6e690504 	cdpvs	5, 6, cr0, cr9, cr4, {0}
    1224:	010a0074 	tsteq	sl, r4, ror r0
    1228:	000006c4 	andeq	r0, r0, r4, asr #13
    122c:	00bd0901 	adcseq	r0, sp, r1, lsl #18
    1230:	97a40000 	strls	r0, [r4, r0]!
    1234:	97dc4000 	ldrbls	r4, [ip, r0]
    1238:	02d84000 	sbcseq	r4, r8, #0
    123c:	70000000 	andvc	r0, r0, r0
    1240:	02000007 	andeq	r0, r0, #7
    1244:	00040800 	andeq	r0, r4, r0, lsl #16
    1248:	6d010400 	cfstrsvs	mvf0, [r1, #-0]
    124c:	01000000 	mrseq	r0, (UNDEF: 0)
    1250:	000006ec 	andeq	r0, r0, ip, ror #13
    1254:	000000f2 	strdeq	r0, [r0], -r2
    1258:	400097dc 	ldrdmi	r9, [r0], -ip
    125c:	40009938 	andmi	r9, r0, r8, lsr r9
    1260:	00000568 	andeq	r0, r0, r8, ror #10
    1264:	2d024802 	stccs	8, cr4, [r2, #-8]
    1268:	00013d01 	andeq	r3, r1, r1, lsl #26
    126c:	02c10300 	sbceq	r0, r1, #0, 6
    1270:	2e020000 	cdpcs	0, 0, cr0, cr2, cr0, {0}
    1274:	00013d01 	andeq	r3, r1, r1, lsl #26
    1278:	00230200 	eoreq	r0, r3, r0, lsl #4
    127c:	0002c703 	andeq	ip, r2, r3, lsl #14
    1280:	012f0200 	teqeq	pc, r0, lsl #4
    1284:	0000013d 	andeq	r0, r0, sp, lsr r1
    1288:	03042302 	movweq	r2, #17154	; 0x4302
    128c:	000002e2 	andeq	r0, r0, r2, ror #5
    1290:	3d013002 	stccc	0, cr3, [r1, #-8]
    1294:	02000001 	andeq	r0, r0, #1
    1298:	1e030823 	cdpne	8, 0, cr0, cr3, cr3, {1}
    129c:	02000003 	andeq	r0, r0, #3
    12a0:	013d0131 	teqeq	sp, r1, lsr r1
    12a4:	23020000 	movwcs	r0, #8192	; 0x2000
    12a8:	0248030c 	subeq	r0, r8, #12, 6	; 0x30000000
    12ac:	32020000 	andcc	r0, r2, #0
    12b0:	00013d01 	andeq	r3, r1, r1, lsl #26
    12b4:	10230200 	eorne	r0, r3, r0, lsl #4
    12b8:	00024103 	andeq	r4, r2, r3, lsl #2
    12bc:	01330200 	teqeq	r3, r0, lsl #4
    12c0:	0000013d 	andeq	r0, r0, sp, lsr r1
    12c4:	03142302 	tsteq	r4, #134217728	; 0x8000000
    12c8:	00000281 	andeq	r0, r0, r1, lsl #5
    12cc:	3d013402 	cfstrscc	mvf3, [r1, #-8]
    12d0:	02000001 	andeq	r0, r0, #1
    12d4:	4f031823 	svcmi	0x00031823
    12d8:	02000002 	andeq	r0, r0, #2
    12dc:	013d0135 	teqeq	sp, r5, lsr r1
    12e0:	23020000 	movwcs	r0, #8192	; 0x2000
    12e4:	02ef031c 	rsceq	r0, pc, #28, 6	; 0x70000000
    12e8:	36020000 	strcc	r0, [r2], -r0
    12ec:	00013d01 	andeq	r3, r1, r1, lsl #26
    12f0:	20230200 	eorcs	r0, r3, r0, lsl #4
    12f4:	0002ba03 	andeq	fp, r2, r3, lsl #20
    12f8:	01370200 	teqeq	r7, r0, lsl #4
    12fc:	0000013d 	andeq	r0, r0, sp, lsr r1
    1300:	03242302 	teqeq	r4, #134217728	; 0x8000000
    1304:	00000256 	andeq	r0, r0, r6, asr r2
    1308:	3d013802 	stccc	8, cr3, [r1, #-8]
    130c:	02000001 	andeq	r0, r0, #1
    1310:	f6032823 			; <UNDEFINED> instruction: 0xf6032823
    1314:	02000002 	andeq	r0, r0, #2
    1318:	013d0139 	teqeq	sp, r9, lsr r1
    131c:	23020000 	movwcs	r0, #8192	; 0x2000
    1320:	028f032c 	addeq	r0, pc, #44, 6	; 0xb0000000
    1324:	3a020000 	bcc	8132c <_start-0x3ff86cd4>
    1328:	00013d01 	andeq	r3, r1, r1, lsl #26
    132c:	30230200 	eorcc	r0, r3, r0, lsl #4
    1330:	00025d03 	andeq	r5, r2, r3, lsl #26
    1334:	013b0200 	teqeq	fp, r0, lsl #4
    1338:	0000013d 	andeq	r0, r0, sp, lsr r1
    133c:	03342302 	teqeq	r4, #134217728	; 0x8000000
    1340:	000002fd 	strdeq	r0, [r0], -sp
    1344:	3d013c02 	stccc	12, cr3, [r1, #-8]
    1348:	02000001 	andeq	r0, r0, #1
    134c:	25033823 	strcs	r3, [r3, #-2083]	; 0x823
    1350:	02000003 	andeq	r0, r0, #3
    1354:	013d013d 	teqeq	sp, sp, lsr r1
    1358:	23020000 	movwcs	r0, #8192	; 0x2000
    135c:	0304033c 	movweq	r0, #17212	; 0x433c
    1360:	3e020000 	cdpcc	0, 0, cr0, cr2, cr0, {0}
    1364:	00013d01 	andeq	r3, r1, r1, lsl #26
    1368:	40230200 	eormi	r0, r3, r0, lsl #4
    136c:	00030b03 	andeq	r0, r3, r3, lsl #22
    1370:	013f0200 	teqeq	pc, r0, lsl #4
    1374:	0000013d 	andeq	r0, r0, sp, lsr r1
    1378:	00442302 	subeq	r2, r4, r2, lsl #6
    137c:	7e070404 	cdpvc	4, 0, cr0, cr7, cr4, {0}
    1380:	05000000 	streq	r0, [r0, #-0]
    1384:	006d7770 	rsbeq	r7, sp, r0, ror r7
    1388:	25014002 	strcs	r4, [r1, #-2]
    138c:	02000000 	andeq	r0, r0, #0
    1390:	024b0228 	subeq	r0, fp, #40, 4	; 0x80000002
    1394:	000001f0 	strdeq	r0, [r0], -r0	; <UNPREDICTABLE>
    1398:	00021603 	andeq	r1, r2, r3, lsl #12
    139c:	024c0200 	subeq	r0, ip, #0, 4
    13a0:	0000013d 	andeq	r0, r0, sp, lsr r1
    13a4:	03002302 	movweq	r2, #770	; 0x302
    13a8:	000002cd 	andeq	r0, r0, sp, asr #5
    13ac:	3d024d02 	stccc	13, cr4, [r2, #-8]
    13b0:	02000001 	andeq	r0, r0, #1
    13b4:	88030423 	stmdahi	r3, {r0, r1, r5, sl}
    13b8:	02000002 	andeq	r0, r0, #2
    13bc:	013d024e 	teqeq	sp, lr, asr #4
    13c0:	23020000 	movwcs	r0, #8192	; 0x2000
    13c4:	02030308 	andeq	r0, r3, #8, 6	; 0x20000000
    13c8:	4f020000 	svcmi	0x00020000
    13cc:	00013d02 	andeq	r3, r1, r2, lsl #26
    13d0:	0c230200 	sfmeq	f0, 4, [r3], #-0
    13d4:	00027003 	andeq	r7, r2, r3
    13d8:	02500200 	subseq	r0, r0, #0, 4
    13dc:	0000013d 	andeq	r0, r0, sp, lsr r1
    13e0:	03102302 	tsteq	r0, #134217728	; 0x8000000
    13e4:	0000020f 	andeq	r0, r0, pc, lsl #4
    13e8:	3d025102 	stfccs	f5, [r2, #-8]
    13ec:	02000001 	andeq	r0, r0, #1
    13f0:	2b031423 	blcs	c6484 <_start-0x3ff41b7c>
    13f4:	02000002 	andeq	r0, r0, #2
    13f8:	013d0252 	teqeq	sp, r2, asr r2
    13fc:	23020000 	movwcs	r0, #8192	; 0x2000
    1400:	02e70318 	rsceq	r0, r7, #24, 6	; 0x60000000
    1404:	53020000 	movwpl	r0, #8192	; 0x2000
    1408:	00013d02 	andeq	r3, r1, r2, lsl #26
    140c:	1c230200 	sfmne	f0, 4, [r3], #-0
    1410:	00021d03 	andeq	r1, r2, r3, lsl #26
    1414:	02540200 	subseq	r0, r4, #0, 4
    1418:	0000013d 	andeq	r0, r0, sp, lsr r1
    141c:	03202302 	teqeq	r0, #134217728	; 0x8000000
    1420:	000002d4 	ldrdeq	r0, [r0], -r4
    1424:	3d025502 	cfstr32cc	mvfx5, [r2, #-8]
    1428:	02000001 	andeq	r0, r0, #1
    142c:	06002423 	streq	r2, [r0], -r3, lsr #8
    1430:	00000264 	andeq	r0, r0, r4, ror #4
    1434:	50025602 	andpl	r5, r2, r2, lsl #12
    1438:	02000001 	andeq	r0, r0, #1
    143c:	02970214 	addseq	r0, r7, #20, 4	; 0x40000001
    1440:	00000251 	andeq	r0, r0, r1, asr r2
    1444:	00063403 	andeq	r3, r6, r3, lsl #8
    1448:	02980200 	addseq	r0, r8, #0, 4
    144c:	0000013d 	andeq	r0, r0, sp, lsr r1
    1450:	03002302 	movweq	r2, #770	; 0x302
    1454:	00000662 	andeq	r0, r0, r2, ror #12
    1458:	3d029902 	stccc	9, cr9, [r2, #-8]
    145c:	02000001 	andeq	r0, r0, #1
    1460:	6b030423 	blvs	c24f4 <_start-0x3ff45b0c>
    1464:	02000006 	andeq	r0, r0, #6
    1468:	013d029a 			; <UNDEFINED> instruction: 0x013d029a
    146c:	23020000 	movwcs	r0, #8192	; 0x2000
    1470:	06740308 	ldrbteq	r0, [r4], -r8, lsl #6
    1474:	9b020000 	blls	8147c <_start-0x3ff86b84>
    1478:	00013d02 	andeq	r3, r1, r2, lsl #26
    147c:	0c230200 	sfmeq	f0, 4, [r3], #-0
    1480:	00058203 	andeq	r8, r5, r3, lsl #4
    1484:	029c0200 	addseq	r0, ip, #0, 4
    1488:	0000013d 	andeq	r0, r0, sp, lsr r1
    148c:	00102302 	andseq	r2, r0, r2, lsl #6
    1490:	0006ae06 	andeq	sl, r6, r6, lsl #28
    1494:	029d0200 	addseq	r0, sp, #0, 4
    1498:	000001fc 	strdeq	r0, [r0], -ip
    149c:	c902a002 	stmdbgt	r2, {r1, sp, pc}
    14a0:	0004c702 	andeq	ip, r4, r2, lsl #14
    14a4:	058b0300 	streq	r0, [fp, #768]	; 0x300
    14a8:	ca020000 	bgt	814b0 <_start-0x3ff86b50>
    14ac:	00013d02 	andeq	r3, r1, r2, lsl #26
    14b0:	00230200 	eoreq	r0, r3, r0, lsl #4
    14b4:	0006a103 	andeq	sl, r6, r3, lsl #2
    14b8:	02cb0200 	sbceq	r0, fp, #0, 4
    14bc:	0000013d 	andeq	r0, r0, sp, lsr r1
    14c0:	03042302 	movweq	r2, #17154	; 0x4302
    14c4:	000003b4 			; <UNDEFINED> instruction: 0x000003b4
    14c8:	3d02cc02 	stccc	12, cr12, [r2, #-8]
    14cc:	02000001 	andeq	r0, r0, #1
    14d0:	75030823 	strvc	r0, [r3, #-2083]	; 0x823
    14d4:	02000005 	andeq	r0, r0, #5
    14d8:	013d02cd 	teqeq	sp, sp, asr #5
    14dc:	23020000 	movwcs	r0, #8192	; 0x2000
    14e0:	03a7030c 			; <UNDEFINED> instruction: 0x03a7030c
    14e4:	ce020000 	cdpgt	0, 0, cr0, cr2, cr0, {0}
    14e8:	00013d02 	andeq	r3, r1, r2, lsl #26
    14ec:	10230200 	eorne	r0, r3, r0, lsl #4
    14f0:	0004c703 	andeq	ip, r4, r3, lsl #14
    14f4:	02cf0200 	sbceq	r0, pc, #0, 4
    14f8:	0000013d 	andeq	r0, r0, sp, lsr r1
    14fc:	03142302 	tsteq	r4, #134217728	; 0x8000000
    1500:	0000055a 	andeq	r0, r0, sl, asr r5
    1504:	3d02d002 	stccc	0, cr13, [r2, #-8]
    1508:	02000001 	andeq	r0, r0, #1
    150c:	80031823 	andhi	r1, r3, r3, lsr #16
    1510:	02000004 	andeq	r0, r0, #4
    1514:	013d02d1 			; <UNDEFINED> instruction: 0x013d02d1
    1518:	23020000 	movwcs	r0, #8192	; 0x2000
    151c:	065a031c 			; <UNDEFINED> instruction: 0x065a031c
    1520:	d2020000 	andle	r0, r2, #0
    1524:	00013d02 	andeq	r3, r1, r2, lsl #26
    1528:	20230200 	eorcs	r0, r3, r0, lsl #4
    152c:	00069903 	andeq	r9, r6, r3, lsl #18
    1530:	02d30200 	sbcseq	r0, r3, #0, 4
    1534:	0000013d 	andeq	r0, r0, sp, lsr r1
    1538:	03242302 	teqeq	r4, #134217728	; 0x8000000
    153c:	000005a6 	andeq	r0, r0, r6, lsr #11
    1540:	3d02d402 	cfstrscc	mvf13, [r2, #-8]
    1544:	02000001 	andeq	r0, r0, #1
    1548:	af032823 	svcge	0x00032823
    154c:	02000005 	andeq	r0, r0, #5
    1550:	013d02d5 			; <UNDEFINED> instruction: 0x013d02d5
    1554:	23020000 	movwcs	r0, #8192	; 0x2000
    1558:	05b8032c 	ldreq	r0, [r8, #812]!	; 0x32c
    155c:	d6020000 	strle	r0, [r2], -r0
    1560:	00013d02 	andeq	r3, r1, r2, lsl #26
    1564:	30230200 	eorcc	r0, r3, r0, lsl #4
    1568:	0005c103 	andeq	ip, r5, r3, lsl #2
    156c:	02d70200 	sbcseq	r0, r7, #0, 4
    1570:	0000013d 	andeq	r0, r0, sp, lsr r1
    1574:	03342302 	teqeq	r4, #134217728	; 0x8000000
    1578:	000005ca 	andeq	r0, r0, sl, asr #11
    157c:	3d02d802 	stccc	8, cr13, [r2, #-8]
    1580:	02000001 	andeq	r0, r0, #1
    1584:	5f033823 	svcpl	0x00033823
    1588:	02000003 	andeq	r0, r0, #3
    158c:	013d02d9 			; <UNDEFINED> instruction: 0x013d02d9
    1590:	23020000 	movwcs	r0, #8192	; 0x2000
    1594:	05d3033c 	ldrbeq	r0, [r3, #828]	; 0x33c
    1598:	da020000 	ble	815a0 <_start-0x3ff86a60>
    159c:	00013d02 	andeq	r3, r1, r2, lsl #26
    15a0:	40230200 	eormi	r0, r3, r0, lsl #4
    15a4:	0005dc03 	andeq	sp, r5, r3, lsl #24
    15a8:	02db0200 	sbcseq	r0, fp, #0, 4
    15ac:	0000013d 	andeq	r0, r0, sp, lsr r1
    15b0:	03442302 	movteq	r2, #17154	; 0x4302
    15b4:	000005e5 	andeq	r0, r0, r5, ror #11
    15b8:	3d02dc02 	stccc	12, cr13, [r2, #-8]
    15bc:	02000001 	andeq	r0, r0, #1
    15c0:	24034823 	strcs	r4, [r3], #-2083	; 0x823
    15c4:	02000005 	andeq	r0, r0, #5
    15c8:	013d02dd 			; <UNDEFINED> instruction: 0x013d02dd
    15cc:	23020000 	movwcs	r0, #8192	; 0x2000
    15d0:	032c034c 	teqeq	ip, #76, 6	; 0x30000001
    15d4:	de020000 	cdple	0, 0, cr0, cr2, cr0, {0}
    15d8:	00013d02 	andeq	r3, r1, r2, lsl #26
    15dc:	50230200 	eorpl	r0, r3, r0, lsl #4
    15e0:	00033503 	andeq	r3, r3, r3, lsl #10
    15e4:	02df0200 	sbcseq	r0, pc, #0, 4
    15e8:	0000013d 	andeq	r0, r0, sp, lsr r1
    15ec:	03542302 	cmpeq	r4, #134217728	; 0x8000000
    15f0:	0000033e 	andeq	r0, r0, lr, lsr r3
    15f4:	3d02e002 	stccc	0, cr14, [r2, #-8]
    15f8:	02000001 	andeq	r0, r0, #1
    15fc:	47035823 	strmi	r5, [r3, -r3, lsr #16]
    1600:	02000003 	andeq	r0, r0, #3
    1604:	013d02e1 	teqeq	sp, r1, ror #5
    1608:	23020000 	movwcs	r0, #8192	; 0x2000
    160c:	0383035c 	orreq	r0, r3, #92, 6	; 0x70000001
    1610:	e2020000 	and	r0, r2, #0
    1614:	00013d02 	andeq	r3, r1, r2, lsl #26
    1618:	60230200 	eorvs	r0, r3, r0, lsl #4
    161c:	00038c03 	andeq	r8, r3, r3, lsl #24
    1620:	02e30200 	rsceq	r0, r3, #0, 4
    1624:	0000013d 	andeq	r0, r0, sp, lsr r1
    1628:	03642302 	cmneq	r4, #134217728	; 0x8000000
    162c:	00000395 	muleq	r0, r5, r3
    1630:	3d02e402 	cfstrscc	mvf14, [r2, #-8]
    1634:	02000001 	andeq	r0, r0, #1
    1638:	68036823 	stmdavs	r3, {r0, r1, r5, fp, sp, lr}
    163c:	02000003 	andeq	r0, r0, #3
    1640:	013d02e5 	teqeq	sp, r5, ror #5
    1644:	23020000 	movwcs	r0, #8192	; 0x2000
    1648:	0371036c 	cmneq	r1, #108, 6	; 0xb0000001
    164c:	e6020000 	str	r0, [r2], -r0
    1650:	00013d02 	andeq	r3, r1, r2, lsl #26
    1654:	70230200 	eorvc	r0, r3, r0, lsl #4
    1658:	00037a03 	andeq	r7, r3, r3, lsl #20
    165c:	02e70200 	rsceq	r0, r7, #0, 4
    1660:	0000013d 	andeq	r0, r0, sp, lsr r1
    1664:	03742302 	cmneq	r4, #134217728	; 0x8000000
    1668:	0000052d 	andeq	r0, r0, sp, lsr #10
    166c:	3d02e802 	stccc	8, cr14, [r2, #-8]
    1670:	02000001 	andeq	r0, r0, #1
    1674:	9e037823 	cdpls	8, 0, cr7, cr3, cr3, {1}
    1678:	02000003 	andeq	r0, r0, #3
    167c:	013d02e9 	teqeq	sp, r9, ror #5
    1680:	23020000 	movwcs	r0, #8192	; 0x2000
    1684:	0433037c 	ldrteq	r0, [r3], #-892	; 0x37c
    1688:	ea020000 	b	81690 <_start-0x3ff86970>
    168c:	00013d02 	andeq	r3, r1, r2, lsl #26
    1690:	80230300 	eorhi	r0, r3, r0, lsl #6
    1694:	043c0301 	ldrteq	r0, [ip], #-769	; 0x301
    1698:	eb020000 	bl	816a0 <_start-0x3ff86960>
    169c:	00013d02 	andeq	r3, r1, r2, lsl #26
    16a0:	84230300 	strthi	r0, [r3], #-768	; 0x300
    16a4:	04450301 	strbeq	r0, [r5], #-769	; 0x301
    16a8:	ec020000 	stc	0, cr0, [r2], {-0}
    16ac:	00013d02 	andeq	r3, r1, r2, lsl #26
    16b0:	88230300 	stmdahi	r3!, {r8, r9}
    16b4:	044e0301 	strbeq	r0, [lr], #-769	; 0x301
    16b8:	ed020000 	stc	0, cr0, [r2, #-0]
    16bc:	00013d02 	andeq	r3, r1, r2, lsl #26
    16c0:	8c230300 	stchi	3, cr0, [r3], #-0
    16c4:	04570301 	ldrbeq	r0, [r7], #-769	; 0x301
    16c8:	ee020000 	cdp	0, 0, cr0, cr2, cr0, {0}
    16cc:	00013d02 	andeq	r3, r1, r2, lsl #26
    16d0:	90230300 	eorls	r0, r3, r0, lsl #6
    16d4:	04600301 	strbteq	r0, [r0], #-769	; 0x301
    16d8:	ef020000 	svc	0x00020000
    16dc:	00013d02 	andeq	r3, r1, r2, lsl #26
    16e0:	94230300 	strtls	r0, [r3], #-768	; 0x300
    16e4:	04690301 	strbteq	r0, [r9], #-769	; 0x301
    16e8:	f0020000 			; <UNDEFINED> instruction: 0xf0020000
    16ec:	00013d02 	andeq	r3, r1, r2, lsl #26
    16f0:	98230300 	stmdals	r3!, {r8, r9}
    16f4:	05440301 	strbeq	r0, [r4, #-769]	; 0x301
    16f8:	f1020000 	cps	#0
    16fc:	00013d02 	andeq	r3, r1, r2, lsl #26
    1700:	9c230300 	stcls	3, cr0, [r3], #-0
    1704:	69050001 	stmdbvs	r5, {r0}
    1708:	02007270 	andeq	r7, r0, #112, 4
    170c:	025d02f2 	subseq	r0, sp, #536870927	; 0x2000000f
    1710:	a0020000 	andge	r0, r2, r0
    1714:	3d02f602 	stccc	6, cr15, [r2, #-8]
    1718:	03000007 	movweq	r0, #7
    171c:	0000067d 	andeq	r0, r0, sp, ror r6
    1720:	3d02f702 	stccc	7, cr15, [r2, #-8]
    1724:	02000001 	andeq	r0, r0, #1
    1728:	8b030023 	blhi	c17bc <_start-0x3ff46844>
    172c:	02000006 	andeq	r0, r0, #6
    1730:	013d02f8 			; <UNDEFINED> instruction: 0x013d02f8
    1734:	23020000 	movwcs	r0, #8192	; 0x2000
    1738:	05360304 	ldreq	r0, [r6, #-772]!	; 0x304
    173c:	f9020000 			; <UNDEFINED> instruction: 0xf9020000
    1740:	00013d02 	andeq	r3, r1, r2, lsl #26
    1744:	08230200 	stmdaeq	r3!, {r9}
    1748:	00056703 	andeq	r6, r5, r3, lsl #14
    174c:	02fa0200 	rscseq	r0, sl, #0, 4
    1750:	0000013d 	andeq	r0, r0, sp, lsr r1
    1754:	030c2302 	movweq	r2, #49922	; 0xc302
    1758:	00000598 	muleq	r0, r8, r5
    175c:	3d02fb02 	vstrcc	d15, [r2, #-8]
    1760:	02000001 	andeq	r0, r0, #1
    1764:	8d031023 	stchi	0, cr1, [r3, #-140]	; 0xffffff74
    1768:	02000004 	andeq	r0, r0, #4
    176c:	013d02fc 			; <UNDEFINED> instruction: 0x013d02fc
    1770:	23020000 	movwcs	r0, #8192	; 0x2000
    1774:	064c0314 			; <UNDEFINED> instruction: 0x064c0314
    1778:	fd020000 	stc2	0, cr0, [r2, #-0]
    177c:	00013d02 	andeq	r3, r1, r2, lsl #26
    1780:	18230200 	stmdane	r3!, {r9}
    1784:	00047203 	andeq	r7, r4, r3, lsl #4
    1788:	02fe0200 	rscseq	r0, lr, #0, 4
    178c:	0000013d 	andeq	r0, r0, sp, lsr r1
    1790:	031c2302 	tsteq	ip, #134217728	; 0x8000000
    1794:	0000049b 	muleq	r0, fp, r4
    1798:	3d02ff02 	stccc	15, cr15, [r2, #-8]
    179c:	02000001 	andeq	r0, r0, #1
    17a0:	a4032023 	strge	r2, [r3], #-35	; 0x23
    17a4:	02000004 	andeq	r0, r0, #4
    17a8:	013d0300 	teqeq	sp, r0, lsl #6
    17ac:	23020000 	movwcs	r0, #8192	; 0x2000
    17b0:	03cf0324 	biceq	r0, pc, #36, 6	; 0x90000000
    17b4:	01020000 	mrseq	r0, (UNDEF: 2)
    17b8:	00013d03 	andeq	r3, r1, r3, lsl #26
    17bc:	28230200 	stmdacs	r3!, {r9}
    17c0:	0003d903 	andeq	sp, r3, r3, lsl #18
    17c4:	03020200 	movweq	r0, #8704	; 0x2200
    17c8:	0000013d 	andeq	r0, r0, sp, lsr r1
    17cc:	032c2302 	teqeq	ip, #134217728	; 0x8000000
    17d0:	000003e3 	andeq	r0, r0, r3, ror #7
    17d4:	3d030302 	stccc	3, cr0, [r3, #-8]
    17d8:	02000001 	andeq	r0, r0, #1
    17dc:	ed033023 	stc	0, cr3, [r3, #-140]	; 0xffffff74
    17e0:	02000003 	andeq	r0, r0, #3
    17e4:	013d0304 	teqeq	sp, r4, lsl #6
    17e8:	23020000 	movwcs	r0, #8192	; 0x2000
    17ec:	03f70334 	mvnseq	r0, #52, 6	; 0xd0000000
    17f0:	05020000 	streq	r0, [r2, #-0]
    17f4:	00013d03 	andeq	r3, r1, r3, lsl #26
    17f8:	38230200 	stmdacc	r3!, {r9}
    17fc:	00040103 	andeq	r0, r4, r3, lsl #2
    1800:	03060200 	movweq	r0, #25088	; 0x6200
    1804:	0000013d 	andeq	r0, r0, sp, lsr r1
    1808:	033c2302 	teqeq	ip, #134217728	; 0x8000000
    180c:	0000040b 	andeq	r0, r0, fp, lsl #8
    1810:	3d030702 	stccc	7, cr0, [r3, #-8]
    1814:	02000001 	andeq	r0, r0, #1
    1818:	15034023 	strne	r4, [r3, #-35]	; 0x23
    181c:	02000004 	andeq	r0, r0, #4
    1820:	013d0308 	teqeq	sp, r8, lsl #6
    1824:	23020000 	movwcs	r0, #8192	; 0x2000
    1828:	041f0344 	ldreq	r0, [pc], #-836	; 1830 <_start-0x400067d0>
    182c:	09020000 	stmdbeq	r2, {}	; <UNPREDICTABLE>
    1830:	00013d03 	andeq	r3, r1, r3, lsl #26
    1834:	48230200 	stmdami	r3!, {r9}
    1838:	00042903 	andeq	r2, r4, r3, lsl #18
    183c:	030a0200 	movweq	r0, #41472	; 0xa200
    1840:	0000013d 	andeq	r0, r0, sp, lsr r1
    1844:	034c2302 	movteq	r2, #49922	; 0xc302
    1848:	000004b3 			; <UNDEFINED> instruction: 0x000004b3
    184c:	3d030b02 	vstrcc	d0, [r3, #-8]
    1850:	02000001 	andeq	r0, r0, #1
    1854:	d4035023 	strle	r5, [r3], #-35	; 0x23
    1858:	02000004 	andeq	r0, r0, #4
    185c:	013d030c 	teqeq	sp, ip, lsl #6
    1860:	23020000 	movwcs	r0, #8192	; 0x2000
    1864:	04bd0354 	ldrteq	r0, [sp], #852	; 0x354
    1868:	0d020000 	stceq	0, cr0, [r2, #-0]
    186c:	00013d03 	andeq	r3, r1, r3, lsl #26
    1870:	58230200 	stmdapl	r3!, {r9}
    1874:	0004de03 	andeq	sp, r4, r3, lsl #28
    1878:	030e0200 	movweq	r0, #57856	; 0xe200
    187c:	0000013d 	andeq	r0, r0, sp, lsr r1
    1880:	035c2302 	cmpeq	ip, #134217728	; 0x8000000
    1884:	000004e8 	andeq	r0, r0, r8, ror #9
    1888:	3d030f02 	stccc	15, cr0, [r3, #-8]
    188c:	02000001 	andeq	r0, r0, #1
    1890:	f2036023 	vhadd.s8	d6, d3, d19
    1894:	02000004 	andeq	r0, r0, #4
    1898:	013d0310 	teqeq	sp, r0, lsl r3
    189c:	23020000 	movwcs	r0, #8192	; 0x2000
    18a0:	04fc0364 	ldrbteq	r0, [ip], #868	; 0x364
    18a4:	11020000 	mrsne	r0, (UNDEF: 2)
    18a8:	00013d03 	andeq	r3, r1, r3, lsl #26
    18ac:	68230200 	stmdavs	r3!, {r9}
    18b0:	00050603 	andeq	r0, r5, r3, lsl #12
    18b4:	03120200 	tsteq	r2, #0, 4
    18b8:	0000013d 	andeq	r0, r0, sp, lsr r1
    18bc:	036c2302 	cmneq	ip, #134217728	; 0x8000000
    18c0:	00000510 	andeq	r0, r0, r0, lsl r5
    18c4:	3d031302 	stccc	3, cr1, [r3, #-8]
    18c8:	02000001 	andeq	r0, r0, #1
    18cc:	1a037023 	bne	dd960 <_start-0x3ff2a6a0>
    18d0:	02000005 	andeq	r0, r0, #5
    18d4:	013d0314 	teqeq	sp, r4, lsl r3
    18d8:	23020000 	movwcs	r0, #8192	; 0x2000
    18dc:	05ee0374 	strbeq	r0, [lr, #884]!	; 0x374
    18e0:	15020000 	strne	r0, [r2, #-0]
    18e4:	00013d03 	andeq	r3, r1, r3, lsl #26
    18e8:	78230200 	stmdavc	r3!, {r9}
    18ec:	0006b303 	andeq	fp, r6, r3, lsl #6
    18f0:	03160200 	tsteq	r6, #0, 4
    18f4:	0000013d 	andeq	r0, r0, sp, lsr r1
    18f8:	037c2302 	cmneq	ip, #134217728	; 0x8000000
    18fc:	000005f8 	strdeq	r0, [r0], -r8
    1900:	3d031702 	stccc	7, cr1, [r3, #-8]
    1904:	03000001 	movweq	r0, #1
    1908:	03018023 	movweq	r8, #4131	; 0x1023
    190c:	00000602 	andeq	r0, r0, r2, lsl #12
    1910:	3d031802 	stccc	8, cr1, [r3, #-8]
    1914:	03000001 	movweq	r0, #1
    1918:	03018423 	movweq	r8, #5155	; 0x1423
    191c:	0000060c 	andeq	r0, r0, ip, lsl #12
    1920:	3d031902 	stccc	9, cr1, [r3, #-8]
    1924:	03000001 	movweq	r0, #1
    1928:	03018823 	movweq	r8, #6179	; 0x1823
    192c:	00000616 	andeq	r0, r0, r6, lsl r6
    1930:	3d031a02 	vstrcc	s2, [r3, #-8]
    1934:	03000001 	movweq	r0, #1
    1938:	03018c23 	movweq	r8, #7203	; 0x1c23
    193c:	00000620 	andeq	r0, r0, r0, lsr #12
    1940:	3d031b02 	vstrcc	d1, [r3, #-8]
    1944:	03000001 	movweq	r0, #1
    1948:	03019023 	movweq	r9, #4131	; 0x1023
    194c:	0000062a 	andeq	r0, r0, sl, lsr #12
    1950:	3d031c02 	stccc	12, cr1, [r3, #-8]
    1954:	03000001 	movweq	r0, #1
    1958:	03019423 	movweq	r9, #5155	; 0x1423
    195c:	00000350 	andeq	r0, r0, r0, asr r3
    1960:	3d031d02 	stccc	13, cr1, [r3, #-8]
    1964:	03000001 	movweq	r0, #1
    1968:	03019823 	movweq	r9, #6179	; 0x1823
    196c:	00000642 	andeq	r0, r0, r2, asr #12
    1970:	3d031e02 	stccc	14, cr1, [r3, #-8]
    1974:	03000001 	movweq	r0, #1
    1978:	00019c23 	andeq	r9, r1, r3, lsr #24
    197c:	00035a06 	andeq	r5, r3, r6, lsl #20
    1980:	031f0200 	tsteq	pc, #0, 4
    1984:	000004d3 	ldrdeq	r0, [r0], -r3
    1988:	06d20107 	ldrbeq	r0, [r2], r7, lsl #2
    198c:	02010000 	andeq	r0, r1, #0
    1990:	0097dc01 	addseq	sp, r7, r1, lsl #24
    1994:	00989840 	addseq	r9, r8, r0, asr #16
    1998:	00030440 	andeq	r0, r3, r0, asr #8
    199c:	dd010700 	stcle	7, cr0, [r1, #-0]
    19a0:	01000006 	tsteq	r0, r6
    19a4:	98980115 	ldmls	r8, {r0, r2, r4, r8}
    19a8:	99384000 	ldmdbls	r8!, {lr}
    19ac:	03304000 	teqeq	r0, #0
    19b0:	Address 0x000019b0 is out of bounds.


Disassembly of section .debug_abbrev:

00000000 <.debug_abbrev>:
   0:	10001101 	andne	r1, r0, r1, lsl #2
   4:	12011106 	andne	r1, r1, #-2147483647	; 0x80000001
   8:	1b080301 	blne	200c14 <_start-0x3fe073ec>
   c:	13082508 	movwne	r2, #34056	; 0x8508
  10:	00000005 	andeq	r0, r0, r5
  14:	10001101 	andne	r1, r0, r1, lsl #2
  18:	12011106 	andne	r1, r1, #-2147483647	; 0x80000001
  1c:	1b080301 	blne	200c28 <_start-0x3fe073d8>
  20:	13082508 	movwne	r2, #34056	; 0x8508
  24:	00000005 	andeq	r0, r0, r5
  28:	10001101 	andne	r1, r0, r1, lsl #2
  2c:	12011106 	andne	r1, r1, #-2147483647	; 0x80000001
  30:	1b080301 	blne	200c3c <_start-0x3fe073c4>
  34:	13082508 	movwne	r2, #34056	; 0x8508
  38:	00000005 	andeq	r0, r0, r5
  3c:	25011101 	strcs	r1, [r1, #-257]	; 0x101
  40:	030b130e 	movweq	r1, #45838	; 0xb30e
  44:	110e1b0e 	tstne	lr, lr, lsl #22
  48:	10011201 	andne	r1, r1, r1, lsl #4
  4c:	02000006 	andeq	r0, r0, #6
  50:	0e030016 	mcreq	0, 0, r0, cr3, cr6, {0}
  54:	0b3b0b3a 	bleq	ec2d44 <_start-0x3f1452bc>
  58:	00001349 	andeq	r1, r0, r9, asr #6
  5c:	0b000f03 	bleq	3c70 <_start-0x40004390>
  60:	000e030b 	andeq	r0, lr, fp, lsl #6
  64:	012e0400 	teqeq	lr, r0, lsl #8
  68:	0b3a0e03 	bleq	e8387c <_start-0x3f184784>
  6c:	0c270b3b 	stceq	11, cr0, [r7], #-236	; 0xffffff14
  70:	01111349 	tsteq	r1, r9, asr #6
  74:	06400112 			; <UNDEFINED> instruction: 0x06400112
  78:	00001301 	andeq	r1, r0, r1, lsl #6
  7c:	03000505 	movweq	r0, #1285	; 0x505
  80:	3b0b3a08 	blcc	2ce8a8 <_start-0x3fd39758>
  84:	0213490b 	andseq	r4, r3, #180224	; 0x2c000
  88:	0600000a 	streq	r0, [r0], -sl
  8c:	0b0b0024 	bleq	2c0124 <_start-0x3fd47edc>
  90:	0e030b3e 	vmoveq.16	d3[0], r0
  94:	2e070000 	cdpcs	0, 0, cr0, cr7, cr0, {0}
  98:	030c3f01 	movweq	r3, #52993	; 0xcf01
  9c:	3b0b3a0e 	blcc	2ce8dc <_start-0x3fd39724>
  a0:	490c270b 	stmdbmi	ip, {r0, r1, r3, r8, r9, sl, sp}
  a4:	12011113 	andne	r1, r1, #-1073741820	; 0xc0000004
  a8:	01064001 	tsteq	r6, r1
  ac:	08000013 	stmdaeq	r0, {r0, r1, r4}
  b0:	0e030005 	cdpeq	0, 0, cr0, cr3, cr5, {0}
  b4:	0b3b0b3a 	bleq	ec2da4 <_start-0x3f14525c>
  b8:	0a021349 	beq	84de4 <_start-0x3ff8321c>
  bc:	34090000 	strcc	r0, [r9], #-0
  c0:	3a0e0300 	bcc	380cc8 <_start-0x3fc87338>
  c4:	490b3b0b 	stmdbmi	fp, {r0, r1, r3, r8, r9, fp, ip, sp}
  c8:	000a0213 	andeq	r0, sl, r3, lsl r2
  cc:	000f0a00 	andeq	r0, pc, r0, lsl #20
  d0:	13490b0b 	movtne	r0, #39691	; 0x9b0b
  d4:	260b0000 	strcs	r0, [fp], -r0
  d8:	00134900 	andseq	r4, r3, r0, lsl #18
  dc:	00340c00 	eorseq	r0, r4, r0, lsl #24
  e0:	0b3a0803 	bleq	e820f4 <_start-0x3f185f0c>
  e4:	13490b3b 	movtne	r0, #39739	; 0x9b3b
  e8:	00000a02 	andeq	r0, r0, r2, lsl #20
  ec:	0b00240d 	bleq	9128 <_start-0x3fffeed8>
  f0:	030b3e0b 	movweq	r3, #48651	; 0xbe0b
  f4:	0e000008 	cdpeq	0, 0, cr0, cr0, cr8, {0}
  f8:	0111010b 	tsteq	r1, fp, lsl #2
  fc:	00000112 	andeq	r0, r0, r2, lsl r1
 100:	4901010f 	stmdbmi	r1, {r0, r1, r2, r3, r8}
 104:	00130113 	andseq	r0, r3, r3, lsl r1
 108:	00211000 	eoreq	r1, r1, r0
 10c:	0b2f1349 	bleq	bc4e38 <_start-0x3f4431c8>
 110:	0a110000 	beq	440118 <_start-0x3fbc7ee8>
 114:	3a0e0300 	bcc	380d1c <_start-0x3fc872e4>
 118:	110b3b0b 	tstne	fp, fp, lsl #22
 11c:	12000001 	andne	r0, r0, #1
 120:	0111010b 	tsteq	r1, fp, lsl #2
 124:	13010112 	movwne	r0, #4370	; 0x1112
 128:	34130000 	ldrcc	r0, [r3], #-0
 12c:	3a080300 	bcc	200d34 <_start-0x3fe072cc>
 130:	49053b0b 	stmdbmi	r5, {r0, r1, r3, r8, r9, fp, ip, sp}
 134:	000a0213 	andeq	r0, sl, r3, lsl r2
 138:	012e1400 	teqeq	lr, r0, lsl #8
 13c:	0e030c3f 	mcreq	12, 0, r0, cr3, cr15, {1}
 140:	053b0b3a 	ldreq	r0, [fp, #-2874]!	; 0xb3a
 144:	13490c27 	movtne	r0, #39975	; 0x9c27
 148:	01120111 	tsteq	r2, r1, lsl r1
 14c:	13010640 	movwne	r0, #5696	; 0x1640
 150:	05150000 	ldreq	r0, [r5, #-0]
 154:	3a080300 	bcc	200d5c <_start-0x3fe072a4>
 158:	49053b0b 	stmdbmi	r5, {r0, r1, r3, r8, r9, fp, ip, sp}
 15c:	000a0213 	andeq	r0, sl, r3, lsl r2
 160:	00181600 	andseq	r1, r8, r0, lsl #12
 164:	34170000 	ldrcc	r0, [r7], #-0
 168:	3a0e0300 	bcc	380d70 <_start-0x3fc87290>
 16c:	49053b0b 	stmdbmi	r5, {r0, r1, r3, r8, r9, fp, ip, sp}
 170:	000a0213 	andeq	r0, sl, r3, lsl r2
 174:	012e1800 	teqeq	lr, r0, lsl #16
 178:	0e030c3f 	mcreq	12, 0, r0, cr3, cr15, {1}
 17c:	053b0b3a 	ldreq	r0, [fp, #-2874]!	; 0xb3a
 180:	01110c27 	tsteq	r1, r7, lsr #24
 184:	06400112 			; <UNDEFINED> instruction: 0x06400112
 188:	00001301 	andeq	r1, r0, r1, lsl #6
 18c:	03003419 	movweq	r3, #1049	; 0x419
 190:	3b0b3a0e 	blcc	2ce9d0 <_start-0x3fd39630>
 194:	3f13490b 	svccc	0x0013490b
 198:	000a020c 	andeq	r0, sl, ip, lsl #4
 19c:	11010000 	mrsne	r0, (UNDEF: 1)
 1a0:	130e2501 	movwne	r2, #58625	; 0xe501
 1a4:	1b0e030b 	blne	380dd8 <_start-0x3fc87228>
 1a8:	1201110e 	andne	r1, r1, #-2147483645	; 0x80000003
 1ac:	00061001 	andeq	r1, r6, r1
 1b0:	00240200 	eoreq	r0, r4, r0, lsl #4
 1b4:	0b3e0b0b 	bleq	f82de8 <_start-0x3f085218>
 1b8:	00000e03 	andeq	r0, r0, r3, lsl #28
 1bc:	0b011303 	bleq	44dd0 <_start-0x3ffc3230>
 1c0:	3b0b3a0b 	blcc	2ce9f4 <_start-0x3fd3960c>
 1c4:	00130105 	andseq	r0, r3, r5, lsl #2
 1c8:	000d0400 	andeq	r0, sp, r0, lsl #8
 1cc:	0b3a0803 	bleq	e821e0 <_start-0x3f185e20>
 1d0:	1349053b 	movtne	r0, #38203	; 0x953b
 1d4:	00000a38 	andeq	r0, r0, r8, lsr sl
 1d8:	03000d05 	movweq	r0, #3333	; 0xd05
 1dc:	3b0b3a0e 	blcc	2cea1c <_start-0x3fd395e4>
 1e0:	38134905 	ldmdacc	r3, {r0, r2, r8, fp, lr}
 1e4:	0600000a 	streq	r0, [r0], -sl
 1e8:	0e030016 	mcreq	0, 0, r0, cr3, cr6, {0}
 1ec:	053b0b3a 	ldreq	r0, [fp, #-2874]!	; 0xb3a
 1f0:	00001349 	andeq	r1, r0, r9, asr #6
 1f4:	3f002e07 	svccc	0x00002e07
 1f8:	3a0e030c 	bcc	380e30 <_start-0x3fc871d0>
 1fc:	110b3b0b 	tstne	fp, fp, lsl #22
 200:	40011201 	andmi	r1, r1, r1, lsl #4
 204:	08000006 	stmdaeq	r0, {r1, r2}
 208:	0c3f012e 	ldfeqs	f0, [pc], #-184	; 158 <_start-0x40007ea8>
 20c:	0b3a0e03 	bleq	e83a20 <_start-0x3f1845e0>
 210:	0c270b3b 	stceq	11, cr0, [r7], #-236	; 0xffffff14
 214:	01120111 	tsteq	r2, r1, lsl r1
 218:	13010640 	movwne	r0, #5696	; 0x1640
 21c:	05090000 	streq	r0, [r9, #-0]
 220:	3a0e0300 	bcc	380e28 <_start-0x3fc871d8>
 224:	490b3b0b 	stmdbmi	fp, {r0, r1, r3, r8, r9, fp, ip, sp}
 228:	000a0213 	andeq	r0, sl, r3, lsl r2
 22c:	00260a00 	eoreq	r0, r6, r0, lsl #20
 230:	00001349 	andeq	r1, r0, r9, asr #6
 234:	0b000f0b 	bleq	3e68 <_start-0x40004198>
 238:	0013490b 	andseq	r4, r3, fp, lsl #18
 23c:	11010000 	mrsne	r0, (UNDEF: 1)
 240:	130e2501 	movwne	r2, #58625	; 0xe501
 244:	1b0e030b 	blne	380e78 <_start-0x3fc87188>
 248:	1201110e 	andne	r1, r1, #-2147483645	; 0x80000003
 24c:	00061001 	andeq	r1, r6, r1
 250:	01130200 	tsteq	r3, r0, lsl #4
 254:	0b3a0b0b 	bleq	e82e88 <_start-0x3f185178>
 258:	1301053b 	movwne	r0, #5435	; 0x153b
 25c:	0d030000 	stceq	0, cr0, [r3, #-0]
 260:	3a0e0300 	bcc	380e68 <_start-0x3fc87198>
 264:	49053b0b 	stmdbmi	r5, {r0, r1, r3, r8, r9, fp, ip, sp}
 268:	000a3813 	andeq	r3, sl, r3, lsl r8
 26c:	00240400 	eoreq	r0, r4, r0, lsl #8
 270:	0b3e0b0b 	bleq	f82ea4 <_start-0x3f08515c>
 274:	00000e03 	andeq	r0, r0, r3, lsl #28
 278:	03001605 	movweq	r1, #1541	; 0x605
 27c:	3b0b3a08 	blcc	2ceaa4 <_start-0x3fd3955c>
 280:	00134905 	andseq	r4, r3, r5, lsl #18
 284:	000d0600 	andeq	r0, sp, r0, lsl #12
 288:	0b3a0803 	bleq	e8229c <_start-0x3f185d64>
 28c:	1349053b 	movtne	r0, #38203	; 0x953b
 290:	00000a38 	andeq	r0, r0, r8, lsr sl
 294:	03001607 	movweq	r1, #1543	; 0x607
 298:	3b0b3a0e 	blcc	2cead8 <_start-0x3fd39528>
 29c:	00134905 	andseq	r4, r3, r5, lsl #18
 2a0:	012e0800 	teqeq	lr, r0, lsl #16
 2a4:	0e030c3f 	mcreq	12, 0, r0, cr3, cr15, {1}
 2a8:	0b3b0b3a 	bleq	ec2f98 <_start-0x3f145068>
 2ac:	01110c27 	tsteq	r1, r7, lsr #24
 2b0:	06400112 			; <UNDEFINED> instruction: 0x06400112
 2b4:	00001301 	andeq	r1, r0, r1, lsl #6
 2b8:	03003409 	movweq	r3, #1033	; 0x409
 2bc:	3b0b3a0e 	blcc	2ceafc <_start-0x3fd39504>
 2c0:	0213490b 	andseq	r4, r3, #180224	; 0x2c000
 2c4:	0a00000a 	beq	2f4 <_start-0x40007d0c>
 2c8:	0111010b 	tsteq	r1, fp, lsl #2
 2cc:	00000112 	andeq	r0, r0, r2, lsl r1
 2d0:	3f012e0b 	svccc	0x00012e0b
 2d4:	3a0e030c 	bcc	380f0c <_start-0x3fc870f4>
 2d8:	490b3b0b 	stmdbmi	fp, {r0, r1, r3, r8, r9, fp, ip, sp}
 2dc:	000c3c13 	andeq	r3, ip, r3, lsl ip
 2e0:	00180c00 	andseq	r0, r8, r0, lsl #24
 2e4:	240d0000 	strcs	r0, [sp], #-0
 2e8:	3e0b0b00 	vmlacc.f64	d0, d11, d0
 2ec:	0008030b 	andeq	r0, r8, fp, lsl #6
 2f0:	11010000 	mrsne	r0, (UNDEF: 1)
 2f4:	130e2501 	movwne	r2, #58625	; 0xe501
 2f8:	1b0e030b 	blne	380f2c <_start-0x3fc870d4>
 2fc:	1201110e 	andne	r1, r1, #-2147483645	; 0x80000003
 300:	00061001 	andeq	r1, r6, r1
 304:	00240200 	eoreq	r0, r4, r0, lsl #4
 308:	0b3e0b0b 	bleq	f82f3c <_start-0x3f0850c4>
 30c:	00000e03 	andeq	r0, r0, r3, lsl #28
 310:	0b011303 	bleq	44f24 <_start-0x3ffc30dc>
 314:	3b0b3a0b 	blcc	2ceb48 <_start-0x3fd394b8>
 318:	00130105 	andseq	r0, r3, r5, lsl #2
 31c:	000d0400 	andeq	r0, sp, r0, lsl #8
 320:	0b3a0803 	bleq	e82334 <_start-0x3f185ccc>
 324:	1349053b 	movtne	r0, #38203	; 0x953b
 328:	00000a38 	andeq	r0, r0, r8, lsr sl
 32c:	03001605 	movweq	r1, #1541	; 0x605
 330:	3b0b3a0e 	blcc	2ceb70 <_start-0x3fd39490>
 334:	00134905 	andseq	r4, r3, r5, lsl #18
 338:	000d0600 	andeq	r0, sp, r0, lsl #12
 33c:	0b3a0e03 	bleq	e83b50 <_start-0x3f1844b0>
 340:	1349053b 	movtne	r0, #38203	; 0x953b
 344:	00000a38 	andeq	r0, r0, r8, lsr sl
 348:	03001607 	movweq	r1, #1543	; 0x607
 34c:	3b0b3a08 	blcc	2ceb74 <_start-0x3fd3948c>
 350:	00134905 	andseq	r4, r3, r5, lsl #18
 354:	002e0800 	eoreq	r0, lr, r0, lsl #16
 358:	0e030c3f 	mcreq	12, 0, r0, cr3, cr15, {1}
 35c:	0b3b0b3a 	bleq	ec304c <_start-0x3f144fb4>
 360:	01110c27 	tsteq	r1, r7, lsr #24
 364:	06400112 			; <UNDEFINED> instruction: 0x06400112
 368:	01000000 	mrseq	r0, (UNDEF: 0)
 36c:	0e250111 	mcreq	1, 1, r0, cr5, cr1, {0}
 370:	0e030b13 	vmoveq.32	d3[0], r0
 374:	01110e1b 	tsteq	r1, fp, lsl lr
 378:	06100112 			; <UNDEFINED> instruction: 0x06100112
 37c:	24020000 	strcs	r0, [r2], #-0
 380:	3e0b0b00 	vmlacc.f64	d0, d11, d0
 384:	000e030b 	andeq	r0, lr, fp, lsl #6
 388:	01130300 	tsteq	r3, r0, lsl #6
 38c:	0b3a0b0b 	bleq	e82fc0 <_start-0x3f185040>
 390:	1301053b 	movwne	r0, #5435	; 0x153b
 394:	0d040000 	stceq	0, cr0, [r4, #-0]
 398:	3a080300 	bcc	200fa0 <_start-0x3fe07060>
 39c:	49053b0b 	stmdbmi	r5, {r0, r1, r3, r8, r9, fp, ip, sp}
 3a0:	000a3813 	andeq	r3, sl, r3, lsl r8
 3a4:	00160500 	andseq	r0, r6, r0, lsl #10
 3a8:	0b3a0e03 	bleq	e83bbc <_start-0x3f184444>
 3ac:	1349053b 	movtne	r0, #38203	; 0x953b
 3b0:	2e060000 	cdpcs	0, 0, cr0, cr6, cr0, {0}
 3b4:	030c3f01 	movweq	r3, #52993	; 0xcf01
 3b8:	3b0b3a0e 	blcc	2cebf8 <_start-0x3fd39408>
 3bc:	110c270b 	tstne	ip, fp, lsl #14
 3c0:	40011201 	andmi	r1, r1, r1, lsl #4
 3c4:	00130106 	andseq	r0, r3, r6, lsl #2
 3c8:	00050700 	andeq	r0, r5, r0, lsl #14
 3cc:	0b3a0803 	bleq	e823e0 <_start-0x3f185c20>
 3d0:	13490b3b 	movtne	r0, #39739	; 0x9b3b
 3d4:	00000a02 	andeq	r0, r0, r2, lsl #20
 3d8:	03003408 	movweq	r3, #1032	; 0x408
 3dc:	3b0b3a08 	blcc	2cec04 <_start-0x3fd393fc>
 3e0:	0213490b 	andseq	r4, r3, #180224	; 0x2c000
 3e4:	0900000a 	stmdbeq	r0, {r1, r3}
 3e8:	0b0b0024 	bleq	2c0480 <_start-0x3fd47b80>
 3ec:	08030b3e 	stmdaeq	r3, {r1, r2, r3, r4, r5, r8, r9, fp}
 3f0:	2e0a0000 	cdpcs	0, 0, cr0, cr10, cr0, {0}
 3f4:	030c3f00 	movweq	r3, #52992	; 0xcf00
 3f8:	3b0b3a0e 	blcc	2cec38 <_start-0x3fd393c8>
 3fc:	1113490b 	tstne	r3, fp, lsl #18
 400:	40011201 	andmi	r1, r1, r1, lsl #4
 404:	00000006 	andeq	r0, r0, r6
 408:	25011101 	strcs	r1, [r1, #-257]	; 0x101
 40c:	030b130e 	movweq	r1, #45838	; 0xb30e
 410:	110e1b0e 	tstne	lr, lr, lsl #22
 414:	10011201 	andne	r1, r1, r1, lsl #4
 418:	02000006 	andeq	r0, r0, #6
 41c:	0b0b0113 	bleq	2c0870 <_start-0x3fd47790>
 420:	053b0b3a 	ldreq	r0, [fp, #-2874]!	; 0xb3a
 424:	00001301 	andeq	r1, r0, r1, lsl #6
 428:	03000d03 	movweq	r0, #3331	; 0xd03
 42c:	3b0b3a0e 	blcc	2cec6c <_start-0x3fd39394>
 430:	38134905 	ldmdacc	r3, {r0, r2, r8, fp, lr}
 434:	0400000a 	streq	r0, [r0], #-10
 438:	0b0b0024 	bleq	2c04d0 <_start-0x3fd47b30>
 43c:	0e030b3e 	vmoveq.16	d3[0], r0
 440:	16050000 	strne	r0, [r5], -r0
 444:	3a080300 	bcc	20104c <_start-0x3fe06fb4>
 448:	49053b0b 	stmdbmi	r5, {r0, r1, r3, r8, r9, fp, ip, sp}
 44c:	06000013 			; <UNDEFINED> instruction: 0x06000013
 450:	0e030016 	mcreq	0, 0, r0, cr3, cr6, {0}
 454:	053b0b3a 	ldreq	r0, [fp, #-2874]!	; 0xb3a
 458:	00001349 	andeq	r1, r0, r9, asr #6
 45c:	3f002e07 	svccc	0x00002e07
 460:	3a0e030c 	bcc	381098 <_start-0x3fc86f68>
 464:	270b3b0b 	strcs	r3, [fp, -fp, lsl #22]
 468:	1201110c 	andne	r1, r1, #12, 2
 46c:	00064001 	andeq	r4, r6, r1
	...

Disassembly of section .debug_aranges:

00000000 <.debug_aranges>:
   0:	0000001c 	andeq	r0, r0, ip, lsl r0
   4:	00000002 	andeq	r0, r0, r2
   8:	00040000 	andeq	r0, r4, r0
   c:	00000000 	andeq	r0, r0, r0
  10:	40008000 	andmi	r8, r0, r0
  14:	000000f8 	strdeq	r0, [r0], -r8
	...
  20:	0000001c 	andeq	r0, r0, ip, lsl r0
  24:	00530002 	subseq	r0, r3, r2
  28:	00040000 	andeq	r0, r4, r0
  2c:	00000000 	andeq	r0, r0, r0
  30:	40008100 	andmi	r8, r0, r0, lsl #2
  34:	00000094 	muleq	r0, r4, r0
	...
  40:	0000001c 	andeq	r0, r0, ip, lsl r0
  44:	00ae0002 	adceq	r0, lr, r2
  48:	00040000 	andeq	r0, r4, r0
  4c:	00000000 	andeq	r0, r0, r0
  50:	40008194 	mulmi	r0, r4, r1
  54:	000000b0 	strheq	r0, [r0], -r0	; <UNPREDICTABLE>
	...
  60:	0000001c 	andeq	r0, r0, ip, lsl r0
  64:	01090002 	tsteq	r9, r2
  68:	00040000 	andeq	r0, r4, r0
  6c:	00000000 	andeq	r0, r0, r0
  70:	40008244 	andmi	r8, r0, r4, asr #4
  74:	000011d8 	ldrdeq	r1, [r0], -r8
	...
  80:	0000001c 	andeq	r0, r0, ip, lsl r0
  84:	05be0002 	ldreq	r0, [lr, #2]!
  88:	00040000 	andeq	r0, r4, r0
  8c:	00000000 	andeq	r0, r0, r0
  90:	4000941c 	andmi	r9, r0, ip, lsl r4
  94:	00000104 	andeq	r0, r0, r4, lsl #2
	...
  a0:	0000001c 	andeq	r0, r0, ip, lsl r0
  a4:	07c80002 	strbeq	r0, [r8, r2]
  a8:	00040000 	andeq	r0, r4, r0
  ac:	00000000 	andeq	r0, r0, r0
  b0:	40009520 	andmi	r9, r0, r0, lsr #10
  b4:	00000104 	andeq	r0, r0, r4, lsl #2
	...
  c0:	0000001c 	andeq	r0, r0, ip, lsl r0
  c4:	0ac00002 	beq	ff0000d4 <_ctype+0xbeff5d28>
  c8:	00040000 	andeq	r0, r4, r0
  cc:	00000000 	andeq	r0, r0, r0
  d0:	40009624 	andmi	r9, r0, r4, lsr #12
  d4:	00000100 	andeq	r0, r0, r0, lsl #2
	...
  e0:	0000001c 	andeq	r0, r0, ip, lsl r0
  e4:	11620002 	cmnne	r2, r2
  e8:	00040000 	andeq	r0, r4, r0
  ec:	00000000 	andeq	r0, r0, r0
  f0:	40009724 	andmi	r9, r0, r4, lsr #14
  f4:	000000b8 	strheq	r0, [r0], -r8
	...
 100:	0000001c 	andeq	r0, r0, ip, lsl r0
 104:	123f0002 	eorsne	r0, pc, #2
 108:	00040000 	andeq	r0, r4, r0
 10c:	00000000 	andeq	r0, r0, r0
 110:	400097dc 	ldrdmi	r9, [r0], -ip
 114:	0000015c 	andeq	r0, r0, ip, asr r1
	...

Disassembly of section .debug_loc:

00000000 <.debug_loc>:
   0:	00000000 	andeq	r0, r0, r0
   4:	00000004 	andeq	r0, r0, r4
   8:	007d0002 	rsbseq	r0, sp, r2
   c:	00000004 	andeq	r0, r0, r4
  10:	00000008 	andeq	r0, r0, r8
  14:	047d0002 	ldrbteq	r0, [sp], #-2
  18:	00000008 	andeq	r0, r0, r8
  1c:	00000050 	andeq	r0, r0, r0, asr r0
  20:	047b0002 	ldrbteq	r0, [fp], #-2
	...
  2c:	00000050 	andeq	r0, r0, r0, asr r0
  30:	00000054 	andeq	r0, r0, r4, asr r0
  34:	007d0002 	rsbseq	r0, sp, r2
  38:	00000054 	andeq	r0, r0, r4, asr r0
  3c:	00000058 	andeq	r0, r0, r8, asr r0
  40:	087d0002 	ldmdaeq	sp!, {r1}^
  44:	00000058 	andeq	r0, r0, r8, asr r0
  48:	000001f4 	strdeq	r0, [r0], -r4
  4c:	047b0002 	ldrbteq	r0, [fp], #-2
	...
  58:	000001f4 	strdeq	r0, [r0], -r4
  5c:	000001f8 	strdeq	r0, [r0], -r8
  60:	007d0002 	rsbseq	r0, sp, r2
  64:	000001f8 	strdeq	r0, [r0], -r8
  68:	000001fc 	strdeq	r0, [r0], -ip
  6c:	087d0002 	ldmdaeq	sp!, {r1}^
  70:	000001fc 	strdeq	r0, [r0], -ip
  74:	00000260 	andeq	r0, r0, r0, ror #4
  78:	047b0002 	ldrbteq	r0, [fp], #-2
	...
  84:	00000260 	andeq	r0, r0, r0, ror #4
  88:	00000264 	andeq	r0, r0, r4, ror #4
  8c:	007d0002 	rsbseq	r0, sp, r2
  90:	00000264 	andeq	r0, r0, r4, ror #4
  94:	00000268 	andeq	r0, r0, r8, ror #4
  98:	047d0002 	ldrbteq	r0, [sp], #-2
  9c:	00000268 	andeq	r0, r0, r8, ror #4
  a0:	000002f4 	strdeq	r0, [r0], -r4
  a4:	047b0002 	ldrbteq	r0, [fp], #-2
	...
  b0:	000002f4 	strdeq	r0, [r0], -r4
  b4:	000002f8 	strdeq	r0, [r0], -r8
  b8:	007d0002 	rsbseq	r0, sp, r2
  bc:	000002f8 	strdeq	r0, [r0], -r8
  c0:	000002fc 	strdeq	r0, [r0], -ip
  c4:	087d0002 	ldmdaeq	sp!, {r1}^
  c8:	000002fc 	strdeq	r0, [r0], -ip
  cc:	00000788 	andeq	r0, r0, r8, lsl #15
  d0:	047b0002 	ldrbteq	r0, [fp], #-2
	...
  dc:	00000788 	andeq	r0, r0, r8, lsl #15
  e0:	0000078c 	andeq	r0, r0, ip, lsl #15
  e4:	007d0002 	rsbseq	r0, sp, r2
  e8:	0000078c 	andeq	r0, r0, ip, lsl #15
  ec:	00000790 	muleq	r0, r0, r7
  f0:	047d0002 	ldrbteq	r0, [sp], #-2
  f4:	00000790 	muleq	r0, r0, r7
  f8:	00000808 	andeq	r0, r0, r8, lsl #16
  fc:	047b0002 	ldrbteq	r0, [fp], #-2
	...
 108:	00000808 	andeq	r0, r0, r8, lsl #16
 10c:	0000080c 	andeq	r0, r0, ip, lsl #16
 110:	007d0002 	rsbseq	r0, sp, r2
 114:	0000080c 	andeq	r0, r0, ip, lsl #16
 118:	00000810 	andeq	r0, r0, r0, lsl r8
 11c:	087d0002 	ldmdaeq	sp!, {r1}^
 120:	00000810 	andeq	r0, r0, r0, lsl r8
 124:	00001130 	andeq	r1, r0, r0, lsr r1
 128:	047b0002 	ldrbteq	r0, [fp], #-2
	...
 134:	00001130 	andeq	r1, r0, r0, lsr r1
 138:	00001134 	andeq	r1, r0, r4, lsr r1
 13c:	007d0002 	rsbseq	r0, sp, r2
 140:	00001134 	andeq	r1, r0, r4, lsr r1
 144:	00001138 	andeq	r1, r0, r8, lsr r1
 148:	0c7d0002 	ldcleq	0, cr0, [sp], #-8
 14c:	00001138 	andeq	r1, r0, r8, lsr r1
 150:	0000113c 	andeq	r1, r0, ip, lsr r1
 154:	147d0002 	ldrbtne	r0, [sp], #-2
 158:	0000113c 	andeq	r1, r0, ip, lsr r1
 15c:	00001180 	andeq	r1, r0, r0, lsl #3
 160:	107b0002 	rsbsne	r0, fp, r2
	...
 16c:	00001180 	andeq	r1, r0, r0, lsl #3
 170:	00001184 	andeq	r1, r0, r4, lsl #3
 174:	007d0002 	rsbseq	r0, sp, r2
 178:	00001184 	andeq	r1, r0, r4, lsl #3
 17c:	00001188 	andeq	r1, r0, r8, lsl #3
 180:	107d0002 	rsbsne	r0, sp, r2
 184:	00001188 	andeq	r1, r0, r8, lsl #3
 188:	0000118c 	andeq	r1, r0, ip, lsl #3
 18c:	187d0002 	ldmdane	sp!, {r1}^
 190:	0000118c 	andeq	r1, r0, ip, lsl #3
 194:	000011d8 	ldrdeq	r1, [r0], -r8
 198:	147b0002 	ldrbtne	r0, [fp], #-2
	...
 1a8:	00000004 	andeq	r0, r0, r4
 1ac:	007d0002 	rsbseq	r0, sp, r2
 1b0:	00000004 	andeq	r0, r0, r4
 1b4:	00000008 	andeq	r0, r0, r8
 1b8:	047d0002 	ldrbteq	r0, [sp], #-2
 1bc:	00000008 	andeq	r0, r0, r8
 1c0:	00000064 	andeq	r0, r0, r4, rrx
 1c4:	047b0002 	ldrbteq	r0, [fp], #-2
	...
 1d0:	00000064 	andeq	r0, r0, r4, rrx
 1d4:	00000068 	andeq	r0, r0, r8, rrx
 1d8:	007d0002 	rsbseq	r0, sp, r2
 1dc:	00000068 	andeq	r0, r0, r8, rrx
 1e0:	0000006c 	andeq	r0, r0, ip, rrx
 1e4:	087d0002 	ldmdaeq	sp!, {r1}^
 1e8:	0000006c 	andeq	r0, r0, ip, rrx
 1ec:	000000bc 	strheq	r0, [r0], -ip
 1f0:	047b0002 	ldrbteq	r0, [fp], #-2
	...
 1fc:	000000bc 	strheq	r0, [r0], -ip
 200:	000000c0 	andeq	r0, r0, r0, asr #1
 204:	007d0002 	rsbseq	r0, sp, r2
 208:	000000c0 	andeq	r0, r0, r0, asr #1
 20c:	000000c4 	andeq	r0, r0, r4, asr #1
 210:	087d0002 	ldmdaeq	sp!, {r1}^
 214:	000000c4 	andeq	r0, r0, r4, asr #1
 218:	00000104 	andeq	r0, r0, r4, lsl #2
 21c:	047b0002 	ldrbteq	r0, [fp], #-2
	...
 22c:	00000004 	andeq	r0, r0, r4
 230:	007d0002 	rsbseq	r0, sp, r2
 234:	00000004 	andeq	r0, r0, r4
 238:	00000008 	andeq	r0, r0, r8
 23c:	087d0002 	ldmdaeq	sp!, {r1}^
 240:	00000008 	andeq	r0, r0, r8
 244:	00000104 	andeq	r0, r0, r4, lsl #2
 248:	047b0002 	ldrbteq	r0, [fp], #-2
	...
 258:	00000004 	andeq	r0, r0, r4
 25c:	007d0002 	rsbseq	r0, sp, r2
 260:	00000004 	andeq	r0, r0, r4
 264:	00000008 	andeq	r0, r0, r8
 268:	047d0002 	ldrbteq	r0, [sp], #-2
 26c:	00000008 	andeq	r0, r0, r8
 270:	00000060 	andeq	r0, r0, r0, rrx
 274:	047b0002 	ldrbteq	r0, [fp], #-2
	...
 280:	00000060 	andeq	r0, r0, r0, rrx
 284:	00000064 	andeq	r0, r0, r4, rrx
 288:	007d0002 	rsbseq	r0, sp, r2
 28c:	00000064 	andeq	r0, r0, r4, rrx
 290:	00000068 	andeq	r0, r0, r8, rrx
 294:	047d0002 	ldrbteq	r0, [sp], #-2
 298:	00000068 	andeq	r0, r0, r8, rrx
 29c:	00000100 	andeq	r0, r0, r0, lsl #2
 2a0:	047b0002 	ldrbteq	r0, [fp], #-2
	...
 2b0:	00000004 	andeq	r0, r0, r4
 2b4:	007d0002 	rsbseq	r0, sp, r2
 2b8:	00000004 	andeq	r0, r0, r4
 2bc:	00000008 	andeq	r0, r0, r8
 2c0:	047d0002 	ldrbteq	r0, [sp], #-2
 2c4:	00000008 	andeq	r0, r0, r8
 2c8:	00000080 	andeq	r0, r0, r0, lsl #1
 2cc:	047b0002 	ldrbteq	r0, [fp], #-2
	...
 2d8:	00000080 	andeq	r0, r0, r0, lsl #1
 2dc:	00000084 	andeq	r0, r0, r4, lsl #1
 2e0:	007d0002 	rsbseq	r0, sp, r2
 2e4:	00000084 	andeq	r0, r0, r4, lsl #1
 2e8:	00000088 	andeq	r0, r0, r8, lsl #1
 2ec:	087d0002 	ldmdaeq	sp!, {r1}^
 2f0:	00000088 	andeq	r0, r0, r8, lsl #1
 2f4:	000000b8 	strheq	r0, [r0], -r8
 2f8:	047b0002 	ldrbteq	r0, [fp], #-2
	...
 308:	00000004 	andeq	r0, r0, r4
 30c:	007d0002 	rsbseq	r0, sp, r2
 310:	00000004 	andeq	r0, r0, r4
 314:	00000008 	andeq	r0, r0, r8
 318:	047d0002 	ldrbteq	r0, [sp], #-2
 31c:	00000008 	andeq	r0, r0, r8
 320:	000000bc 	strheq	r0, [r0], -ip
 324:	047b0002 	ldrbteq	r0, [fp], #-2
	...
 330:	000000bc 	strheq	r0, [r0], -ip
 334:	000000c0 	andeq	r0, r0, r0, asr #1
 338:	007d0002 	rsbseq	r0, sp, r2
 33c:	000000c0 	andeq	r0, r0, r0, asr #1
 340:	000000c4 	andeq	r0, r0, r4, asr #1
 344:	047d0002 	ldrbteq	r0, [sp], #-2
 348:	000000c4 	andeq	r0, r0, r4, asr #1
 34c:	0000015c 	andeq	r0, r0, ip, asr r1
 350:	047b0002 	ldrbteq	r0, [fp], #-2
	...

Disassembly of section .debug_str:

00000000 <.debug_str>:
   0:	75625f5f 	strbvc	r5, [r2, #-3935]!	; 0xf5f
   4:	69746c69 	ldmdbvs	r4!, {r0, r3, r5, r6, sl, fp, sp, lr}^
   8:	61765f6e 	cmnvs	r6, lr, ror #30
   c:	73696c5f 	cmnvc	r9, #24320	; 0x5f00
  10:	69730074 	ldmdbvs	r3!, {r2, r4, r5, r6}^
  14:	656c706d 	strbvs	r7, [ip, #-109]!	; 0x6d
  18:	7274735f 	rsbsvc	r7, r4, #2080374785	; 0x7c000001
  1c:	6c756f74 	ldclvs	15, cr6, [r5], #-464	; 0xfffffe30
  20:	6c617600 	stclvs	6, cr7, [r1], #-0
  24:	63006575 	movwvs	r6, #1397	; 0x575
  28:	746e756f 	strbtvc	r7, [lr], #-1391	; 0x56f
  2c:	696b7300 	stmdbvs	fp!, {r8, r9, ip, sp, lr}^
  30:	74615f70 	strbtvc	r5, [r1], #-3952	; 0xf70
  34:	5f00696f 	svcpl	0x0000696f
  38:	756f745f 	strbvc	r7, [pc, #-1119]!	; fffffbe1 <_ctype+0xbfff5835>
  3c:	72657070 	rsbvc	r7, r5, #112	; 0x70
  40:	675f5f00 	ldrbvs	r5, [pc, -r0, lsl #30]
  44:	5f63756e 	svcpl	0x0063756e
  48:	6c5f6176 	ldfvse	f6, [pc], {118}	; 0x76
  4c:	00747369 	rsbseq	r7, r4, r9, ror #6
  50:	63657270 	cmnvs	r5, #112, 4
  54:	6f697369 	svcvs	0x00697369
  58:	6e75006e 	cdpvs	0, 7, cr0, cr5, cr14, {3}
  5c:	6e676973 	mcrvs	9, 3, r6, cr7, cr3, {3}
  60:	63206465 	teqvs	r0, #1694498816	; 0x65000000
  64:	00726168 	rsbseq	r6, r2, r8, ror #2
  68:	65736162 	ldrbvs	r6, [r3, #-354]!	; 0x162
  6c:	554e4700 	strbpl	r4, [lr, #-1792]	; 0x700
  70:	34204320 	strtcc	r4, [r0], #-800	; 0x320
  74:	342e362e 	strtcc	r3, [lr], #-1582	; 0x62e
  78:	6e6f6c00 	cdpvs	12, 6, cr6, cr15, cr0, {0}
  7c:	6e752067 	cdpvs	0, 7, cr2, cr5, cr7, {3}
  80:	6e676973 	mcrvs	9, 3, r6, cr7, cr3, {3}
  84:	69206465 	stmdbvs	r0!, {r0, r2, r5, r6, sl, sp, lr}
  88:	7300746e 	movwvc	r7, #1134	; 0x46e
  8c:	6c706d69 	ldclvs	13, cr6, [r0], #-420	; 0xfffffe5c
  90:	74735f65 	ldrbtvc	r5, [r3], #-3941	; 0xf65
  94:	6c6f7472 	cfstrdvs	mvd7, [pc], #-456	; fffffed4 <_ctype+0xbfff5b28>
  98:	6d6f6300 	stclvs	3, cr6, [pc, #-0]	; a0 <_start-0x40007f60>
  9c:	2f6e6f6d 	svccs	0x006e6f6d
  a0:	2f637273 	svccs	0x00637273
  a4:	6e697270 	mcrvs	2, 3, r7, cr9, cr0, {3}
  a8:	632e6674 	teqvs	lr, #116, 12	; 0x7400000
  ac:	616c6600 	cmnvs	ip, r0, lsl #12
  b0:	71007367 	tstvc	r0, r7, ror #6
  b4:	696c6175 	stmdbvs	ip!, {r0, r2, r4, r5, r6, r8, sp, lr}^
  b8:	72656966 	rsbvc	r6, r5, #1671168	; 0x198000
  bc:	73657200 	cmnvc	r5, #0, 4
  c0:	00746c75 	rsbseq	r6, r4, r5, ror ip
  c4:	65706572 	ldrbvs	r6, [r0, #-1394]!	; 0x572
  c8:	73007461 	movwvc	r7, #1121	; 0x461
  cc:	6c6e7274 	sfmvs	f7, 2, [lr], #-464	; 0xfffffe30
  d0:	65006e65 	strvs	r6, [r0, #-3685]	; 0xe65
  d4:	0070646e 	rsbseq	r6, r0, lr, ror #8
  d8:	7974635f 	ldmdbvc	r4!, {r0, r1, r2, r3, r4, r6, r8, r9, sp, lr}^
  dc:	64006570 	strvs	r6, [r0], #-1392	; 0x570
  e0:	74696769 	strbtvc	r6, [r9], #-1897	; 0x769
  e4:	72700073 	rsbsvc	r0, r0, #115	; 0x73
  e8:	62746e69 	rsbsvs	r6, r4, #1680	; 0x690
  ec:	65666675 	strbvs	r6, [r6, #-1653]!	; 0x675
  f0:	682f0072 	stmdavs	pc!, {r1, r4, r5, r6}	; <UNPREDICTABLE>
  f4:	2f656d6f 	svccs	0x00656d6f
  f8:	6a797168 	bvs	1e5c6a0 <_start-0x3e1ab960>
  fc:	3243442f 	subcc	r4, r3, #788529152	; 0x2f000000
 100:	2f313030 	svccs	0x00313030
 104:	6b2d3830 	blvs	b4e1cc <_start-0x3f4b9e34>
 108:	692d7965 	pushvs	{r0, r2, r5, r6, r8, fp, ip, sp, lr}
 10c:	66007172 			; <UNDEFINED> instruction: 0x66007172
 110:	646c6569 	strbtvs	r6, [ip], #-1385	; 0x569
 114:	6469775f 	strbtvs	r7, [r9], #-1887	; 0x75f
 118:	61006874 	tstvs	r0, r4, ror r8
 11c:	00736772 	rsbseq	r6, r3, r2, ror r7
 120:	626d756e 	rsbvs	r7, sp, #461373440	; 0x1b800000
 124:	6c007265 	sfmvs	f7, 4, [r0], {101}	; 0x65
 128:	20676e6f 	rsbcs	r6, r7, pc, ror #28
 12c:	00746e69 	rsbseq	r6, r4, r9, ror #28
 130:	6e676973 	mcrvs	9, 3, r6, cr7, cr3, {3}
 134:	725f5f00 	subsvc	r5, pc, #0, 30
 138:	73007365 	movwvc	r7, #869	; 0x365
 13c:	00657a69 	rsbeq	r7, r5, r9, ror #20
 140:	72707376 	rsbsvc	r7, r0, #-671088639	; 0xd8000001
 144:	66746e69 	ldrbtvs	r6, [r4], -r9, ror #28
 148:	72617500 	rsbvc	r7, r1, #0, 10
 14c:	55003274 	strpl	r3, [r0, #-628]	; 0x274
 150:	50544e49 	subspl	r4, r4, r9, asr #28
 154:	49550032 	ldmdbmi	r5, {r1, r4, r5}^
 158:	5053544e 	subspl	r5, r3, lr, asr #8
 15c:	42550032 	subsmi	r0, r5, #50	; 0x32
 160:	56494452 			; <UNDEFINED> instruction: 0x56494452
 164:	73700032 	cmnvc	r0, #50	; 0x32
 168:	55007274 	strpl	r7, [r0, #-628]	; 0x274
 16c:	41545346 	cmpmi	r4, r6, asr #6
 170:	55003254 	strpl	r3, [r0, #-596]	; 0x254
 174:	54535254 	ldrbpl	r5, [r3], #-596	; 0x254
 178:	00325441 	eorseq	r5, r2, r1, asr #8
 17c:	74726175 	ldrbtvc	r6, [r2], #-373	; 0x175
 180:	696e695f 	stmdbvs	lr!, {r0, r1, r2, r3, r4, r6, r8, fp, sp, lr}^
 184:	61640074 	smcvs	16388	; 0x4004
 188:	55006174 	strpl	r6, [r0, #-372]	; 0x174
 18c:	4e4f4346 	cdpmi	3, 4, cr4, cr15, cr6, {2}
 190:	54550032 	ldrbpl	r0, [r5], #-50	; 0x32
 194:	00324858 	eorseq	r4, r2, r8, asr r8
 198:	504e4f43 	subpl	r4, lr, r3, asr #30
 19c:	55004e44 	strpl	r4, [r0, #-3652]	; 0xe44
 1a0:	324e4f43 	subcc	r4, lr, #268	; 0x10c
 1a4:	534d5500 	movtpl	r5, #54528	; 0xd500
 1a8:	32544154 	subscc	r4, r4, #84, 2
 1ac:	4e495500 	cdpmi	5, 4, cr5, cr9, cr0, {0}
 1b0:	00324d54 	eorseq	r4, r2, r4, asr sp
 1b4:	4f434c55 	svcmi	0x00434c55
 1b8:	6700324e 	strvs	r3, [r0, -lr, asr #4]
 1bc:	00316170 	eorseq	r6, r1, r0, ror r1
 1c0:	63747570 	cmnvs	r4, #112, 10	; 0x1c000000
 1c4:	52455500 	subpl	r5, r5, #0, 10
 1c8:	54415453 	strbpl	r5, [r1], #-1107	; 0x453
 1cc:	55500032 	ldrbpl	r0, [r0, #-50]	; 0x32
 1d0:	4e445044 	cdpmi	0, 4, cr5, cr4, cr4, {2}
 1d4:	6d6f6300 	stclvs	3, cr6, [pc, #-0]	; 1dc <_start-0x40007e24>
 1d8:	2f6e6f6d 	svccs	0x006e6f6d
 1dc:	2f637273 	svccs	0x00637273
 1e0:	74726175 	ldrbtvc	r6, [r2], #-373	; 0x175
 1e4:	7000632e 	andvc	r6, r0, lr, lsr #6
 1e8:	00737475 	rsbseq	r7, r3, r5, ror r4
 1ec:	4f434d55 	svcmi	0x00434d55
 1f0:	5500324e 	strpl	r3, [r0, #-590]	; 0x24e
 1f4:	32485852 	subcc	r5, r8, #5373952	; 0x520000
 1f8:	52465500 	subpl	r5, r6, #0, 10
 1fc:	41564341 	cmpmi	r6, r1, asr #6
 200:	4900324c 	stmdbmi	r0, {r2, r3, r6, r9, ip, sp}
 204:	41494343 	cmpmi	r9, r3, asr #6
 208:	63690052 	cmnvs	r9, #82	; 0x52
 20c:	49007270 	stmdbmi	r0, {r4, r5, r6, r9, ip, sp, lr}
 210:	50524343 	subspl	r4, r2, r3, asr #6
 214:	43490052 	movtmi	r0, #36946	; 0x9052
 218:	52434943 	subpl	r4, r3, #1097728	; 0x10c000
 21c:	544e4900 	strbpl	r4, [lr], #-2304	; 0x900
 220:	455f4745 	ldrbmi	r4, [pc, #-1861]	; fffffae3 <_ctype+0xbfff5737>
 224:	7067004e 	rsbvc	r0, r7, lr, asr #32
 228:	49003178 	stmdbmi	r0, {r3, r4, r5, r6, r8, ip, sp}
 22c:	50484343 	subpl	r4, r8, r3, asr #6
 230:	49005249 	stmdbmi	r0, {r0, r3, r6, r9, ip, lr}
 234:	43494443 	movtmi	r4, #37955	; 0x9443
 238:	5f305250 	svcpl	0x00305250
 23c:	30555043 	subscc	r5, r5, r3, asr #32
 240:	4e435400 	cdpmi	4, 4, cr5, cr3, cr0, {0}
 244:	00304f54 	eorseq	r4, r0, r4, asr pc
 248:	504d4354 	subpl	r4, sp, r4, asr r3
 24c:	54003042 	strpl	r3, [r0], #-66	; 0x42
 250:	42504d43 	subsmi	r4, r0, #4288	; 0x10c0
 254:	43540031 	cmpmi	r4, #49	; 0x31
 258:	3242504d 	subcc	r5, r2, #77	; 0x4d
 25c:	4d435400 	cfstrdmi	mvd5, [r3, #-0]
 260:	00334250 	eorseq	r4, r3, r0, asr r2
 264:	30757063 	rsbscc	r7, r5, r3, rrx
 268:	5f6f6400 	svcpl	0x006f6400
 26c:	00717269 	rsbseq	r7, r1, r9, ror #4
 270:	45434349 	strbmi	r4, [r3, #-841]	; 0x349
 274:	0052494f 	subseq	r4, r2, pc, asr #18
 278:	695f6f64 	ldmdbvs	pc, {r2, r5, r6, r8, r9, sl, fp, sp, lr}^	; <UNPREDICTABLE>
 27c:	632e7172 	teqvs	lr, #-2147483620	; 0x8000001c
 280:	4e435400 	cdpmi	4, 4, cr5, cr3, cr0, {0}
 284:	00314254 	eorseq	r4, r1, r4, asr r2
 288:	42434349 	submi	r4, r3, #603979777	; 0x24000001
 28c:	54005250 	strpl	r5, [r0], #-592	; 0x250
 290:	42544e43 	subsmi	r4, r4, #1072	; 0x430
 294:	43490033 	movtmi	r0, #36915	; 0x9033
 298:	50434944 	subpl	r4, r3, r4, asr #18
 29c:	49003152 	stmdbmi	r0, {r1, r4, r6, r8, ip, sp}
 2a0:	43494443 	movtmi	r4, #37955	; 0x9443
 2a4:	00325250 	eorseq	r5, r2, r0, asr r2
 2a8:	49444349 	stmdbmi	r4, {r0, r3, r6, r8, r9, lr}^
 2ac:	33525043 	cmpcc	r2, #67	; 0x43
 2b0:	44434900 	strbmi	r4, [r3], #-2304	; 0x900
 2b4:	52504349 	subspl	r4, r0, #603979777	; 0x24000001
 2b8:	43540034 	cmpmi	r4, #52	; 0x34
 2bc:	3242544e 	subcc	r5, r2, #1308622848	; 0x4e000000
 2c0:	46435400 	strbmi	r5, [r3], -r0, lsl #8
 2c4:	54003047 	strpl	r3, [r0], #-71	; 0x47
 2c8:	31474643 	cmpcc	r7, r3, asr #12
 2cc:	43434900 	movtmi	r4, #14592	; 0x3900
 2d0:	00524d50 	subseq	r4, r2, r0, asr sp
 2d4:	45544e49 	ldrbmi	r4, [r4, #-3657]	; 0xe49
 2d8:	50555252 	subspl	r5, r5, r2, asr r2
 2dc:	554f5f54 	strbpl	r5, [pc, #-3924]	; fffff390 <_ctype+0xbfff4fe4>
 2e0:	43540054 	cmpmi	r4, #84	; 0x54
 2e4:	49004e4f 	stmdbmi	r0, {r0, r1, r2, r3, r6, r9, sl, fp, lr}
 2e8:	42414343 	submi	r4, r1, #201326593	; 0xc000001
 2ec:	54005250 	strpl	r5, [r0], #-592	; 0x250
 2f0:	4f544e43 	svcmi	0x00544e43
 2f4:	43540031 	cmpmi	r4, #49	; 0x31
 2f8:	324f544e 	subcc	r5, pc, #1308622848	; 0x4e000000
 2fc:	4e435400 	cdpmi	4, 4, cr5, cr3, cr0, {0}
 300:	00334f54 	eorseq	r4, r3, r4, asr pc
 304:	544e4354 	strbpl	r4, [lr], #-852	; 0x354
 308:	5400344f 	strpl	r3, [r0], #-1103	; 0x44f
 30c:	5f544e49 	svcpl	0x00544e49
 310:	41545343 	cmpmi	r4, r3, asr #6
 314:	72690054 	rsbvc	r0, r9, #84	; 0x54
 318:	756e5f71 	strbvc	r5, [lr, #-3953]!	; 0xf71
 31c:	4354006d 	cmpmi	r4, #109	; 0x6d
 320:	3042544e 	subcc	r5, r2, lr, asr #8
 324:	4e435400 	cdpmi	4, 4, cr5, cr3, cr0, {0}
 328:	00344254 	eorseq	r4, r4, r4, asr r2
 32c:	49444349 	stmdbmi	r4, {r0, r3, r6, r8, r9, lr}^
 330:	30325250 	eorscc	r5, r2, r0, asr r2
 334:	44434900 	strbmi	r4, [r3], #-2304	; 0x900
 338:	32525049 	subscc	r5, r2, #73	; 0x49
 33c:	43490031 	movtmi	r0, #36913	; 0x9031
 340:	52504944 	subspl	r4, r0, #68, 18	; 0x110000
 344:	49003232 	stmdbmi	r0, {r1, r4, r5, r9, ip, sp}
 348:	50494443 	subpl	r4, r9, r3, asr #8
 34c:	00333252 	eorseq	r3, r3, r2, asr r2
 350:	49444349 	stmdbmi	r4, {r0, r3, r6, r8, r9, lr}^
 354:	33525450 	cmpcc	r2, #80, 8	; 0x50000000
 358:	70690038 	rsbvc	r0, r9, r8, lsr r0
 35c:	49007274 	stmdbmi	r0, {r2, r4, r5, r6, r9, ip, sp, lr}
 360:	50494443 	subpl	r4, r9, r3, asr #8
 364:	00353152 	eorseq	r3, r5, r2, asr r1
 368:	49444349 	stmdbmi	r4, {r0, r3, r6, r8, r9, lr}^
 36c:	37325250 			; <UNDEFINED> instruction: 0x37325250
 370:	44434900 	strbmi	r4, [r3], #-2304	; 0x900
 374:	32525049 	subscc	r5, r2, #73	; 0x49
 378:	43490038 	movtmi	r0, #36920	; 0x9038
 37c:	52504944 	subspl	r4, r0, #68, 18	; 0x110000
 380:	49003932 	stmdbmi	r0, {r1, r4, r5, r8, fp, ip, sp}
 384:	50494443 	subpl	r4, r9, r3, asr #8
 388:	00343252 	eorseq	r3, r4, r2, asr r2
 38c:	49444349 	stmdbmi	r4, {r0, r3, r6, r8, r9, lr}^
 390:	35325250 	ldrcc	r5, [r2, #-592]!	; 0x250
 394:	44434900 	strbmi	r4, [r3], #-2304	; 0x900
 398:	32525049 	subscc	r5, r2, #73	; 0x49
 39c:	43490036 	movtmi	r0, #36918	; 0x9036
 3a0:	52504944 	subspl	r4, r0, #68, 18	; 0x110000
 3a4:	49003133 	stmdbmi	r0, {r0, r1, r4, r5, r8, ip, sp}
 3a8:	50494443 	subpl	r4, r9, r3, asr #8
 3ac:	435f3452 	cmpmi	pc, #1375731712	; 0x52000000
 3b0:	00305550 	eorseq	r5, r0, r0, asr r5
 3b4:	49444349 	stmdbmi	r4, {r0, r3, r6, r8, r9, lr}^
 3b8:	5f325250 	svcpl	0x00325250
 3bc:	30555043 	subscc	r5, r5, r3, asr #32
 3c0:	79656b00 	stmdbvc	r5!, {r8, r9, fp, sp, lr}^
 3c4:	6970675f 	ldmdbvs	r0!, {r0, r1, r2, r3, r4, r6, r8, r9, sl, sp, lr}^
 3c8:	6e695f6f 	cdpvs	15, 6, cr5, cr9, cr15, {3}
 3cc:	49007469 	stmdbmi	r0, {r0, r3, r5, r6, sl, ip, sp, lr}
 3d0:	50494443 	subpl	r4, r9, r3, asr #8
 3d4:	30315254 	eorscc	r5, r1, r4, asr r2
 3d8:	44434900 	strbmi	r4, [r3], #-2304	; 0x900
 3dc:	52545049 	subspl	r5, r4, #73	; 0x49
 3e0:	49003131 	stmdbmi	r0, {r0, r4, r5, r8, ip, sp}
 3e4:	50494443 	subpl	r4, r9, r3, asr #8
 3e8:	32315254 	eorscc	r5, r1, #84, 4	; 0x40000005
 3ec:	44434900 	strbmi	r4, [r3], #-2304	; 0x900
 3f0:	52545049 	subspl	r5, r4, #73	; 0x49
 3f4:	49003331 	stmdbmi	r0, {r0, r4, r5, r8, r9, ip, sp}
 3f8:	50494443 	subpl	r4, r9, r3, asr #8
 3fc:	34315254 	ldrtcc	r5, [r1], #-596	; 0x254
 400:	44434900 	strbmi	r4, [r3], #-2304	; 0x900
 404:	52545049 	subspl	r5, r4, #73	; 0x49
 408:	49003531 	stmdbmi	r0, {r0, r4, r5, r8, sl, ip, sp}
 40c:	50494443 	subpl	r4, r9, r3, asr #8
 410:	36315254 			; <UNDEFINED> instruction: 0x36315254
 414:	44434900 	strbmi	r4, [r3], #-2304	; 0x900
 418:	52545049 	subspl	r5, r4, #73	; 0x49
 41c:	49003731 	stmdbmi	r0, {r0, r4, r5, r8, r9, sl, ip, sp}
 420:	50494443 	subpl	r4, r9, r3, asr #8
 424:	38315254 	ldmdacc	r1!, {r2, r4, r6, r9, ip, lr}
 428:	44434900 	strbmi	r4, [r3], #-2304	; 0x900
 42c:	52545049 	subspl	r5, r4, #73	; 0x49
 430:	49003931 	stmdbmi	r0, {r0, r4, r5, r8, fp, ip, sp}
 434:	50494443 	subpl	r4, r9, r3, asr #8
 438:	00323352 	eorseq	r3, r2, r2, asr r3
 43c:	49444349 	stmdbmi	r4, {r0, r3, r6, r8, r9, lr}^
 440:	33335250 	teqcc	r3, #80, 4
 444:	44434900 	strbmi	r4, [r3], #-2304	; 0x900
 448:	33525049 	cmpcc	r2, #73	; 0x49
 44c:	43490034 	movtmi	r0, #36916	; 0x9034
 450:	52504944 	subspl	r4, r0, #68, 18	; 0x110000
 454:	49003533 	stmdbmi	r0, {r0, r1, r4, r5, r8, sl, ip, sp}
 458:	50494443 	subpl	r4, r9, r3, asr #8
 45c:	00363352 	eorseq	r3, r6, r2, asr r3
 460:	49444349 	stmdbmi	r4, {r0, r3, r6, r8, r9, lr}^
 464:	37335250 			; <UNDEFINED> instruction: 0x37335250
 468:	44434900 	strbmi	r4, [r3], #-2304	; 0x900
 46c:	33525049 	cmpcc	r2, #73	; 0x49
 470:	43490038 	movtmi	r0, #36920	; 0x9038
 474:	54504944 	ldrbpl	r4, [r0], #-2372	; 0x944
 478:	435f3752 	cmpmi	pc, #21495808	; 0x1480000
 47c:	00305550 	eorseq	r5, r0, r0, asr r5
 480:	49444349 	stmdbmi	r4, {r0, r3, r6, r8, r9, lr}^
 484:	5f375250 	svcpl	0x00375250
 488:	30555043 	subscc	r5, r5, r3, asr #32
 48c:	44434900 	strbmi	r4, [r3], #-2304	; 0x900
 490:	52545049 	subspl	r5, r4, #73	; 0x49
 494:	50435f35 	subpl	r5, r3, r5, lsr pc
 498:	49003055 	stmdbmi	r0, {r0, r2, r4, r6, ip, sp}
 49c:	50494443 	subpl	r4, r9, r3, asr #8
 4a0:	00385254 	eorseq	r5, r8, r4, asr r2
 4a4:	49444349 	stmdbmi	r4, {r0, r3, r6, r8, r9, lr}^
 4a8:	39525450 	ldmdbcc	r2, {r4, r6, sl, ip, lr}^
 4ac:	79656b00 	stmdbvc	r5!, {r8, r9, fp, sp, lr}^
 4b0:	4900632e 	stmdbmi	r0, {r1, r2, r3, r5, r8, r9, sp, lr}
 4b4:	50494443 	subpl	r4, r9, r3, asr #8
 4b8:	30325254 	eorscc	r5, r2, r4, asr r2
 4bc:	44434900 	strbmi	r4, [r3], #-2304	; 0x900
 4c0:	52545049 	subspl	r5, r4, #73	; 0x49
 4c4:	49003232 	stmdbmi	r0, {r1, r4, r5, r9, ip, sp}
 4c8:	50494443 	subpl	r4, r9, r3, asr #8
 4cc:	435f3552 	cmpmi	pc, #343932928	; 0x14800000
 4d0:	00305550 	eorseq	r5, r0, r0, asr r5
 4d4:	49444349 	stmdbmi	r4, {r0, r3, r6, r8, r9, lr}^
 4d8:	32525450 	subscc	r5, r2, #80, 8	; 0x50000000
 4dc:	43490031 	movtmi	r0, #36913	; 0x9031
 4e0:	54504944 	ldrbpl	r4, [r0], #-2372	; 0x944
 4e4:	00333252 	eorseq	r3, r3, r2, asr r2
 4e8:	49444349 	stmdbmi	r4, {r0, r3, r6, r8, r9, lr}^
 4ec:	32525450 	subscc	r5, r2, #80, 8	; 0x50000000
 4f0:	43490034 	movtmi	r0, #36916	; 0x9034
 4f4:	54504944 	ldrbpl	r4, [r0], #-2372	; 0x944
 4f8:	00353252 	eorseq	r3, r5, r2, asr r2
 4fc:	49444349 	stmdbmi	r4, {r0, r3, r6, r8, r9, lr}^
 500:	32525450 	subscc	r5, r2, #80, 8	; 0x50000000
 504:	43490036 	movtmi	r0, #36918	; 0x9036
 508:	54504944 	ldrbpl	r4, [r0], #-2372	; 0x944
 50c:	00373252 	eorseq	r3, r7, r2, asr r2
 510:	49444349 	stmdbmi	r4, {r0, r3, r6, r8, r9, lr}^
 514:	32525450 	subscc	r5, r2, #80, 8	; 0x50000000
 518:	43490038 	movtmi	r0, #36920	; 0x9038
 51c:	54504944 	ldrbpl	r4, [r0], #-2372	; 0x944
 520:	00393252 	eorseq	r3, r9, r2, asr r2
 524:	49444349 	stmdbmi	r4, {r0, r3, r6, r8, r9, lr}^
 528:	39315250 	ldmdbcc	r1!, {r4, r6, r9, ip, lr}
 52c:	44434900 	strbmi	r4, [r3], #-2304	; 0x900
 530:	33525049 	cmpcc	r2, #73	; 0x49
 534:	43490030 	movtmi	r0, #36912	; 0x9030
 538:	54504944 	ldrbpl	r4, [r0], #-2372	; 0x944
 53c:	435f3252 	cmpmi	pc, #536870917	; 0x20000005
 540:	00305550 	eorseq	r5, r0, r0, asr r5
 544:	49444349 	stmdbmi	r4, {r0, r3, r6, r8, r9, lr}^
 548:	39335250 	ldmdbcc	r3!, {r4, r6, r9, ip, lr}
 54c:	79656b00 	stmdbvc	r5!, {r8, r9, fp, sp, lr}^
 550:	6369675f 	cmnvs	r9, #24903680	; 0x17c0000
 554:	696e695f 	stmdbvs	lr!, {r0, r1, r2, r3, r4, r6, r8, fp, sp, lr}^
 558:	43490074 	movtmi	r0, #36980	; 0x9074
 55c:	52504944 	subspl	r4, r0, #68, 18	; 0x110000
 560:	50435f36 	subpl	r5, r3, r6, lsr pc
 564:	49003055 	stmdbmi	r0, {r0, r2, r4, r6, ip, sp}
 568:	50494443 	subpl	r4, r9, r3, asr #8
 56c:	5f335254 	svcpl	0x00335254
 570:	30555043 	subscc	r5, r5, r3, asr #32
 574:	44434900 	strbmi	r4, [r3], #-2304	; 0x900
 578:	33525049 	cmpcc	r2, #73	; 0x49
 57c:	5550435f 	ldrbpl	r4, [r0, #-863]	; 0x35f
 580:	43490030 	movtmi	r0, #36912	; 0x9030
 584:	45534944 	ldrbmi	r4, [r3, #-2372]	; 0x944
 588:	49003452 	stmdbmi	r0, {r1, r4, r6, sl, ip, sp}
 58c:	50494443 	subpl	r4, r9, r3, asr #8
 590:	435f3052 	cmpmi	pc, #82	; 0x52
 594:	00305550 	eorseq	r5, r0, r0, asr r5
 598:	49444349 	stmdbmi	r4, {r0, r3, r6, r8, r9, lr}^
 59c:	34525450 	ldrbcc	r5, [r2], #-1104	; 0x450
 5a0:	5550435f 	ldrbpl	r4, [r0, #-863]	; 0x35f
 5a4:	43490030 	movtmi	r0, #36912	; 0x9030
 5a8:	52504944 	subspl	r4, r0, #68, 18	; 0x110000
 5ac:	49003031 	stmdbmi	r0, {r0, r4, r5, ip, sp}
 5b0:	50494443 	subpl	r4, r9, r3, asr #8
 5b4:	00313152 	eorseq	r3, r1, r2, asr r1
 5b8:	49444349 	stmdbmi	r4, {r0, r3, r6, r8, r9, lr}^
 5bc:	32315250 	eorscc	r5, r1, #80, 4
 5c0:	44434900 	strbmi	r4, [r3], #-2304	; 0x900
 5c4:	31525049 	cmpcc	r2, r9, asr #32
 5c8:	43490033 	movtmi	r0, #36915	; 0x9033
 5cc:	52504944 	subspl	r4, r0, #68, 18	; 0x110000
 5d0:	49003431 	stmdbmi	r0, {r0, r4, r5, sl, ip, sp}
 5d4:	50494443 	subpl	r4, r9, r3, asr #8
 5d8:	00363152 	eorseq	r3, r6, r2, asr r1
 5dc:	49444349 	stmdbmi	r4, {r0, r3, r6, r8, r9, lr}^
 5e0:	37315250 			; <UNDEFINED> instruction: 0x37315250
 5e4:	44434900 	strbmi	r4, [r3], #-2304	; 0x900
 5e8:	31525049 	cmpcc	r2, r9, asr #32
 5ec:	43490038 	movtmi	r0, #36920	; 0x9038
 5f0:	54504944 	ldrbpl	r4, [r0], #-2372	; 0x944
 5f4:	00303352 	eorseq	r3, r0, r2, asr r3
 5f8:	49444349 	stmdbmi	r4, {r0, r3, r6, r8, r9, lr}^
 5fc:	33525450 	cmpcc	r2, #80, 8	; 0x50000000
 600:	43490032 	movtmi	r0, #36914	; 0x9032
 604:	54504944 	ldrbpl	r4, [r0], #-2372	; 0x944
 608:	00333352 	eorseq	r3, r3, r2, asr r3
 60c:	49444349 	stmdbmi	r4, {r0, r3, r6, r8, r9, lr}^
 610:	33525450 	cmpcc	r2, #80, 8	; 0x50000000
 614:	43490034 	movtmi	r0, #36916	; 0x9034
 618:	54504944 	ldrbpl	r4, [r0], #-2372	; 0x944
 61c:	00353352 	eorseq	r3, r5, r2, asr r3
 620:	49444349 	stmdbmi	r4, {r0, r3, r6, r8, r9, lr}^
 624:	33525450 	cmpcc	r2, #80, 8	; 0x50000000
 628:	43490036 	movtmi	r0, #36918	; 0x9036
 62c:	54504944 	ldrbpl	r4, [r0], #-2372	; 0x944
 630:	00373352 	eorseq	r3, r7, r2, asr r3
 634:	49444349 	stmdbmi	r4, {r0, r3, r6, r8, r9, lr}^
 638:	30524553 	subscc	r4, r2, r3, asr r5
 63c:	5550435f 	ldrbpl	r4, [r0, #-863]	; 0x35f
 640:	43490030 	movtmi	r0, #36912	; 0x9030
 644:	54504944 	ldrbpl	r4, [r0], #-2372	; 0x944
 648:	00393352 	eorseq	r3, r9, r2, asr r3
 64c:	49444349 	stmdbmi	r4, {r0, r3, r6, r8, r9, lr}^
 650:	36525450 			; <UNDEFINED> instruction: 0x36525450
 654:	5550435f 	ldrbpl	r4, [r0, #-863]	; 0x35f
 658:	43490030 	movtmi	r0, #36912	; 0x9030
 65c:	52504944 	subspl	r4, r0, #68, 18	; 0x110000
 660:	43490038 	movtmi	r0, #36920	; 0x9038
 664:	45534944 	ldrbmi	r4, [r3, #-2372]	; 0x944
 668:	49003152 	stmdbmi	r0, {r1, r4, r6, r8, ip, sp}
 66c:	53494443 	movtpl	r4, #37955	; 0x9443
 670:	00325245 	eorseq	r5, r2, r5, asr #4
 674:	49444349 	stmdbmi	r4, {r0, r3, r6, r8, r9, lr}^
 678:	33524553 	cmpcc	r2, #348127232	; 0x14c00000
 67c:	44434900 	strbmi	r4, [r3], #-2304	; 0x900
 680:	52545049 	subspl	r5, r4, #73	; 0x49
 684:	50435f30 	subpl	r5, r3, r0, lsr pc
 688:	49003055 	stmdbmi	r0, {r0, r2, r4, r6, ip, sp}
 68c:	50494443 	subpl	r4, r9, r3, asr #8
 690:	5f315254 	svcpl	0x00315254
 694:	30555043 	subscc	r5, r5, r3, asr #32
 698:	44434900 	strbmi	r4, [r3], #-2304	; 0x900
 69c:	39525049 	ldmdbcc	r2, {r0, r3, r6, ip, lr}^
 6a0:	44434900 	strbmi	r4, [r3], #-2304	; 0x900
 6a4:	31525049 	cmpcc	r2, r9, asr #32
 6a8:	5550435f 	ldrbpl	r4, [r0, #-863]	; 0x35f
 6ac:	73690030 	cmnvc	r9, #48	; 0x30
 6b0:	49007265 	stmdbmi	r0, {r0, r2, r5, r6, r9, ip, sp, lr}
 6b4:	50494443 	subpl	r4, r9, r3, asr #8
 6b8:	31335254 	teqcc	r3, r4, asr r2
 6bc:	69616d00 	stmdbvs	r1!, {r8, sl, fp, sp, lr}^
 6c0:	00632e6e 	rsbeq	r2, r3, lr, ror #28
 6c4:	6e69616d 	powvsez	f6, f1, #5.0
 6c8:	6c656400 	cfstrdvs	mvd6, [r5], #-0
 6cc:	6d5f7961 	ldclvs	9, cr7, [pc, #-388]	; 550 <_start-0x40007ab0>
 6d0:	69740073 	ldmdbvs	r4!, {r0, r1, r4, r5, r6}^
 6d4:	5f72656d 	svcpl	0x0072656d
 6d8:	74696e69 	strbtvc	r6, [r9], #-3689	; 0xe69
 6dc:	6d697400 	cfstrdvs	mvd7, [r9, #-0]
 6e0:	675f7265 	ldrbvs	r7, [pc, -r5, ror #4]
 6e4:	695f6369 	ldmdbvs	pc, {r0, r3, r5, r6, r8, r9, sp, lr}^	; <UNPREDICTABLE>
 6e8:	0074696e 	rsbseq	r6, r4, lr, ror #18
 6ec:	656d6974 	strbvs	r6, [sp, #-2420]!	; 0x974
 6f0:	00632e72 	rsbeq	r2, r3, r2, ror lr

Disassembly of section .debug_frame:

00000000 <.debug_frame>:
   0:	0000000c 	andeq	r0, r0, ip
   4:	ffffffff 			; <UNDEFINED> instruction: 0xffffffff
   8:	7c020001 	stcvc	0, cr0, [r2], {1}
   c:	000d0c0e 	andeq	r0, sp, lr, lsl #24
  10:	00000014 	andeq	r0, r0, r4, lsl r0
  14:	00000000 	andeq	r0, r0, r0
  18:	40008244 	andmi	r8, r0, r4, asr #4
  1c:	00000050 	andeq	r0, r0, r0, asr r0
  20:	8b040e42 	blhi	103930 <_start-0x3ff046d0>
  24:	0b0d4201 	bleq	350830 <_start-0x3fcb77d0>
  28:	00000018 	andeq	r0, r0, r8, lsl r0
  2c:	00000000 	andeq	r0, r0, r0
  30:	40008294 	mulmi	r0, r4, r2
  34:	000001a4 	andeq	r0, r0, r4, lsr #3
  38:	8e080e42 	cdphi	14, 0, cr0, cr8, cr2, {2}
  3c:	42028b01 	andmi	r8, r2, #1024	; 0x400
  40:	00040b0c 	andeq	r0, r4, ip, lsl #22
  44:	00000018 	andeq	r0, r0, r8, lsl r0
  48:	00000000 	andeq	r0, r0, r0
  4c:	40008438 	andmi	r8, r0, r8, lsr r4
  50:	0000006c 	andeq	r0, r0, ip, rrx
  54:	8e080e42 	cdphi	14, 0, cr0, cr8, cr2, {2}
  58:	42028b01 	andmi	r8, r2, #1024	; 0x400
  5c:	00040b0c 	andeq	r0, r4, ip, lsl #22
  60:	00000014 	andeq	r0, r0, r4, lsl r0
  64:	00000000 	andeq	r0, r0, r0
  68:	400084a4 	andmi	r8, r0, r4, lsr #9
  6c:	00000094 	muleq	r0, r4, r0
  70:	8b040e42 	blhi	103980 <_start-0x3ff04680>
  74:	0b0d4201 	bleq	350880 <_start-0x3fcb7780>
  78:	00000018 	andeq	r0, r0, r8, lsl r0
  7c:	00000000 	andeq	r0, r0, r0
  80:	40008538 	andmi	r8, r0, r8, lsr r5
  84:	00000494 	muleq	r0, r4, r4
  88:	8e080e42 	cdphi	14, 0, cr0, cr8, cr2, {2}
  8c:	42028b01 	andmi	r8, r2, #1024	; 0x400
  90:	00040b0c 	andeq	r0, r4, ip, lsl #22
  94:	00000014 	andeq	r0, r0, r4, lsl r0
  98:	00000000 	andeq	r0, r0, r0
  9c:	400089cc 	andmi	r8, r0, ip, asr #19
  a0:	00000080 	andeq	r0, r0, r0, lsl #1
  a4:	8b040e42 	blhi	1039b4 <_start-0x3ff0464c>
  a8:	0b0d4201 	bleq	3508b4 <_start-0x3fcb774c>
  ac:	00000018 	andeq	r0, r0, r8, lsl r0
  b0:	00000000 	andeq	r0, r0, r0
  b4:	40008a4c 	andmi	r8, r0, ip, asr #20
  b8:	00000928 	andeq	r0, r0, r8, lsr #18
  bc:	8e080e42 	cdphi	14, 0, cr0, cr8, cr2, {2}
  c0:	42028b01 	andmi	r8, r2, #1024	; 0x400
  c4:	00040b0c 	andeq	r0, r4, ip, lsl #22
  c8:	00000020 	andeq	r0, r0, r0, lsr #32
  cc:	00000000 	andeq	r0, r0, r0
  d0:	40009374 	andmi	r9, r0, r4, ror r3
  d4:	00000050 	andeq	r0, r0, r0, asr r0
  d8:	830c0e42 	movwhi	r0, #52802	; 0xce42
  dc:	81028201 	tsthi	r2, r1, lsl #4
  e0:	140e4203 	strne	r4, [lr], #-515	; 0x203
  e4:	058b048e 	streq	r0, [fp, #1166]	; 0x48e
  e8:	100b0c42 	andne	r0, fp, r2, asr #24
  ec:	00000024 	andeq	r0, r0, r4, lsr #32
  f0:	00000000 	andeq	r0, r0, r0
  f4:	400093c4 	andmi	r9, r0, r4, asr #7
  f8:	00000058 	andeq	r0, r0, r8, asr r0
  fc:	83100e42 	tsthi	r0, #1056	; 0x420
 100:	81028201 	tsthi	r2, r1, lsl #4
 104:	42048003 	andmi	r8, r4, #3
 108:	058e180e 	streq	r1, [lr, #2062]	; 0x80e
 10c:	0c42068b 	mcrreq	6, 8, r0, r2, cr11
 110:	0000140b 	andeq	r1, r0, fp, lsl #8
 114:	0000000c 	andeq	r0, r0, ip
 118:	ffffffff 			; <UNDEFINED> instruction: 0xffffffff
 11c:	7c020001 	stcvc	0, cr0, [r2], {1}
 120:	000d0c0e 	andeq	r0, sp, lr, lsl #24
 124:	00000014 	andeq	r0, r0, r4, lsl r0
 128:	00000114 	andeq	r0, r0, r4, lsl r1
 12c:	4000941c 	andmi	r9, r0, ip, lsl r4
 130:	00000064 	andeq	r0, r0, r4, rrx
 134:	8b040e42 	blhi	103a44 <_start-0x3ff045bc>
 138:	0b0d4201 	bleq	350944 <_start-0x3fcb76bc>
 13c:	00000018 	andeq	r0, r0, r8, lsl r0
 140:	00000114 	andeq	r0, r0, r4, lsl r1
 144:	40009480 	andmi	r9, r0, r0, lsl #9
 148:	00000058 	andeq	r0, r0, r8, asr r0
 14c:	8e080e42 	cdphi	14, 0, cr0, cr8, cr2, {2}
 150:	42028b01 	andmi	r8, r2, #1024	; 0x400
 154:	00040b0c 	andeq	r0, r4, ip, lsl #22
 158:	00000018 	andeq	r0, r0, r8, lsl r0
 15c:	00000114 	andeq	r0, r0, r4, lsl r1
 160:	400094d8 	ldrdmi	r9, [r0], -r8
 164:	00000048 	andeq	r0, r0, r8, asr #32
 168:	8e080e42 	cdphi	14, 0, cr0, cr8, cr2, {2}
 16c:	42028b01 	andmi	r8, r2, #1024	; 0x400
 170:	00040b0c 	andeq	r0, r4, ip, lsl #22
 174:	0000000c 	andeq	r0, r0, ip
 178:	ffffffff 			; <UNDEFINED> instruction: 0xffffffff
 17c:	7c020001 	stcvc	0, cr0, [r2], {1}
 180:	000d0c0e 	andeq	r0, sp, lr, lsl #24
 184:	00000018 	andeq	r0, r0, r8, lsl r0
 188:	00000174 	andeq	r0, r0, r4, ror r1
 18c:	40009520 	andmi	r9, r0, r0, lsr #10
 190:	00000104 	andeq	r0, r0, r4, lsl #2
 194:	8e080e42 	cdphi	14, 0, cr0, cr8, cr2, {2}
 198:	42028b01 	andmi	r8, r2, #1024	; 0x400
 19c:	00040b0c 	andeq	r0, r4, ip, lsl #22
 1a0:	0000000c 	andeq	r0, r0, ip
 1a4:	ffffffff 			; <UNDEFINED> instruction: 0xffffffff
 1a8:	7c020001 	stcvc	0, cr0, [r2], {1}
 1ac:	000d0c0e 	andeq	r0, sp, lr, lsl #24
 1b0:	00000014 	andeq	r0, r0, r4, lsl r0
 1b4:	000001a0 	andeq	r0, r0, r0, lsr #3
 1b8:	40009624 	andmi	r9, r0, r4, lsr #12
 1bc:	00000060 	andeq	r0, r0, r0, rrx
 1c0:	8b040e42 	blhi	103ad0 <_start-0x3ff04530>
 1c4:	0b0d4201 	bleq	3509d0 <_start-0x3fcb7630>
 1c8:	00000014 	andeq	r0, r0, r4, lsl r0
 1cc:	000001a0 	andeq	r0, r0, r0, lsr #3
 1d0:	40009684 	andmi	r9, r0, r4, lsl #13
 1d4:	000000a0 	andeq	r0, r0, r0, lsr #1
 1d8:	8b040e42 	blhi	103ae8 <_start-0x3ff04518>
 1dc:	0b0d4201 	bleq	3509e8 <_start-0x3fcb7618>
 1e0:	0000000c 	andeq	r0, r0, ip
 1e4:	ffffffff 			; <UNDEFINED> instruction: 0xffffffff
 1e8:	7c020001 	stcvc	0, cr0, [r2], {1}
 1ec:	000d0c0e 	andeq	r0, sp, lr, lsl #24
 1f0:	00000014 	andeq	r0, r0, r4, lsl r0
 1f4:	000001e0 	andeq	r0, r0, r0, ror #3
 1f8:	40009724 	andmi	r9, r0, r4, lsr #14
 1fc:	00000080 	andeq	r0, r0, r0, lsl #1
 200:	8b040e42 	blhi	103b10 <_start-0x3ff044f0>
 204:	0b0d4201 	bleq	350a10 <_start-0x3fcb75f0>
 208:	00000018 	andeq	r0, r0, r8, lsl r0
 20c:	000001e0 	andeq	r0, r0, r0, ror #3
 210:	400097a4 	andmi	r9, r0, r4, lsr #15
 214:	00000038 	andeq	r0, r0, r8, lsr r0
 218:	8e080e42 	cdphi	14, 0, cr0, cr8, cr2, {2}
 21c:	42028b01 	andmi	r8, r2, #1024	; 0x400
 220:	00040b0c 	andeq	r0, r4, ip, lsl #22
 224:	0000000c 	andeq	r0, r0, ip
 228:	ffffffff 			; <UNDEFINED> instruction: 0xffffffff
 22c:	7c020001 	stcvc	0, cr0, [r2], {1}
 230:	000d0c0e 	andeq	r0, sp, lr, lsl #24
 234:	00000014 	andeq	r0, r0, r4, lsl r0
 238:	00000224 	andeq	r0, r0, r4, lsr #4
 23c:	400097dc 	ldrdmi	r9, [r0], -ip
 240:	000000bc 	strheq	r0, [r0], -ip
 244:	8b040e42 	blhi	103b54 <_start-0x3ff044ac>
 248:	0b0d4201 	bleq	350a54 <_start-0x3fcb75ac>
 24c:	00000014 	andeq	r0, r0, r4, lsl r0
 250:	00000224 	andeq	r0, r0, r4, lsr #4
 254:	40009898 	mulmi	r0, r8, r8
 258:	000000a0 	andeq	r0, r0, r0, lsr #1
 25c:	8b040e42 	blhi	103b6c <_start-0x3ff04494>
 260:	0b0d4201 	bleq	350a6c <_start-0x3fcb7594>
